ARM GAS  C:\Users\casey\AppData\Local\Temp\ccidVM6n.s 			page 1


   1              		.syntax unified
   2              		.cpu cortex-m0
   3              		.fpu softvfp
   4              		.eabi_attribute 20, 1
   5              		.eabi_attribute 21, 1
   6              		.eabi_attribute 23, 3
   7              		.eabi_attribute 24, 1
   8              		.eabi_attribute 25, 1
   9              		.eabi_attribute 26, 1
  10              		.eabi_attribute 30, 1
  11              		.eabi_attribute 34, 0
  12              		.eabi_attribute 18, 4
  13              		.thumb
  14              		.syntax unified
  15              		.file	"cyfitter_cfg.c"
  16              		.text
  17              	.Ltext0:
  18              		.cfi_sections	.debug_frame
  19              		.section	.text.cfg_write_bytes32,"ax",%progbits
  20              		.align	2
  21              		.code	16
  22              		.thumb_func
  23              		.type	cfg_write_bytes32, %function
  24              	cfg_write_bytes32:
  25              	.LFB4:
  26              		.file 1 "Generated_Source\\PSoC4\\cyfitter_cfg.c"
   1:Generated_Source\PSoC4/cyfitter_cfg.c **** 
   2:Generated_Source\PSoC4/cyfitter_cfg.c **** /*******************************************************************************
   3:Generated_Source\PSoC4/cyfitter_cfg.c **** * File Name: cyfitter_cfg.c
   4:Generated_Source\PSoC4/cyfitter_cfg.c **** * 
   5:Generated_Source\PSoC4/cyfitter_cfg.c **** * PSoC Creator  4.4
   6:Generated_Source\PSoC4/cyfitter_cfg.c **** *
   7:Generated_Source\PSoC4/cyfitter_cfg.c **** * Description:
   8:Generated_Source\PSoC4/cyfitter_cfg.c **** * This file contains device initialization code.
   9:Generated_Source\PSoC4/cyfitter_cfg.c **** * Except for the user defined sections in CyClockStartupError(), this file should not be modified.
  10:Generated_Source\PSoC4/cyfitter_cfg.c **** * This file is automatically generated by PSoC Creator.
  11:Generated_Source\PSoC4/cyfitter_cfg.c **** *
  12:Generated_Source\PSoC4/cyfitter_cfg.c **** ********************************************************************************
  13:Generated_Source\PSoC4/cyfitter_cfg.c **** * Copyright (c) 2007-2020 Cypress Semiconductor.  All rights reserved.
  14:Generated_Source\PSoC4/cyfitter_cfg.c **** * You may use this file only in accordance with the license, terms, conditions, 
  15:Generated_Source\PSoC4/cyfitter_cfg.c **** * disclaimers, and limitations in the end user license agreement accompanying 
  16:Generated_Source\PSoC4/cyfitter_cfg.c **** * the software package with which this file was provided.
  17:Generated_Source\PSoC4/cyfitter_cfg.c **** ********************************************************************************/
  18:Generated_Source\PSoC4/cyfitter_cfg.c **** 
  19:Generated_Source\PSoC4/cyfitter_cfg.c **** #include <string.h>
  20:Generated_Source\PSoC4/cyfitter_cfg.c **** #include "cytypes.h"
  21:Generated_Source\PSoC4/cyfitter_cfg.c **** #include "cydevice_trm.h"
  22:Generated_Source\PSoC4/cyfitter_cfg.c **** #include "cyfitter.h"
  23:Generated_Source\PSoC4/cyfitter_cfg.c **** #include "CyLib.h"
  24:Generated_Source\PSoC4/cyfitter_cfg.c **** #include "CyLFClk.h"
  25:Generated_Source\PSoC4/cyfitter_cfg.c **** #include "cyfitter_cfg.h"
  26:Generated_Source\PSoC4/cyfitter_cfg.c **** #include "cyapicallbacks.h"
  27:Generated_Source\PSoC4/cyfitter_cfg.c **** 
  28:Generated_Source\PSoC4/cyfitter_cfg.c **** 
  29:Generated_Source\PSoC4/cyfitter_cfg.c **** #if defined(__GNUC__) || defined(__ARMCC_VERSION)
  30:Generated_Source\PSoC4/cyfitter_cfg.c ****     #define CYPACKED 
  31:Generated_Source\PSoC4/cyfitter_cfg.c ****     #define CYPACKED_ATTR __attribute__ ((packed))
ARM GAS  C:\Users\casey\AppData\Local\Temp\ccidVM6n.s 			page 2


  32:Generated_Source\PSoC4/cyfitter_cfg.c ****     #define CYALIGNED __attribute__ ((aligned))
  33:Generated_Source\PSoC4/cyfitter_cfg.c ****     #define CY_CFG_UNUSED __attribute__ ((unused))
  34:Generated_Source\PSoC4/cyfitter_cfg.c ****     #ifndef CY_CFG_SECTION
  35:Generated_Source\PSoC4/cyfitter_cfg.c ****         #define CY_CFG_SECTION __attribute__ ((section(".psocinit")))
  36:Generated_Source\PSoC4/cyfitter_cfg.c ****     #endif
  37:Generated_Source\PSoC4/cyfitter_cfg.c ****     
  38:Generated_Source\PSoC4/cyfitter_cfg.c ****     #if defined(__ARMCC_VERSION)
  39:Generated_Source\PSoC4/cyfitter_cfg.c ****         #define CY_CFG_MEMORY_BARRIER() __memory_changed()
  40:Generated_Source\PSoC4/cyfitter_cfg.c ****     #else
  41:Generated_Source\PSoC4/cyfitter_cfg.c ****         #define CY_CFG_MEMORY_BARRIER() __sync_synchronize()
  42:Generated_Source\PSoC4/cyfitter_cfg.c ****     #endif
  43:Generated_Source\PSoC4/cyfitter_cfg.c ****     
  44:Generated_Source\PSoC4/cyfitter_cfg.c **** #elif defined(__ICCARM__)
  45:Generated_Source\PSoC4/cyfitter_cfg.c ****     #include <intrinsics.h>
  46:Generated_Source\PSoC4/cyfitter_cfg.c **** 
  47:Generated_Source\PSoC4/cyfitter_cfg.c ****     #define CYPACKED __packed
  48:Generated_Source\PSoC4/cyfitter_cfg.c ****     #define CYPACKED_ATTR 
  49:Generated_Source\PSoC4/cyfitter_cfg.c ****     #define CYALIGNED _Pragma("data_alignment=4")
  50:Generated_Source\PSoC4/cyfitter_cfg.c ****     #define CY_CFG_UNUSED _Pragma("diag_suppress=Pe177")
  51:Generated_Source\PSoC4/cyfitter_cfg.c ****     #define CY_CFG_SECTION _Pragma("location=\".psocinit\"")
  52:Generated_Source\PSoC4/cyfitter_cfg.c ****     
  53:Generated_Source\PSoC4/cyfitter_cfg.c ****     #define CY_CFG_MEMORY_BARRIER() __DMB()
  54:Generated_Source\PSoC4/cyfitter_cfg.c ****     
  55:Generated_Source\PSoC4/cyfitter_cfg.c **** #else
  56:Generated_Source\PSoC4/cyfitter_cfg.c ****     #error Unsupported toolchain
  57:Generated_Source\PSoC4/cyfitter_cfg.c **** #endif
  58:Generated_Source\PSoC4/cyfitter_cfg.c **** 
  59:Generated_Source\PSoC4/cyfitter_cfg.c **** #ifndef CYCODE
  60:Generated_Source\PSoC4/cyfitter_cfg.c ****     #define CYCODE
  61:Generated_Source\PSoC4/cyfitter_cfg.c **** #endif
  62:Generated_Source\PSoC4/cyfitter_cfg.c **** #ifndef CYDATA
  63:Generated_Source\PSoC4/cyfitter_cfg.c ****     #define CYDATA
  64:Generated_Source\PSoC4/cyfitter_cfg.c **** #endif
  65:Generated_Source\PSoC4/cyfitter_cfg.c **** #ifndef CYFAR
  66:Generated_Source\PSoC4/cyfitter_cfg.c ****     #define CYFAR
  67:Generated_Source\PSoC4/cyfitter_cfg.c **** #endif
  68:Generated_Source\PSoC4/cyfitter_cfg.c **** #ifndef CYXDATA
  69:Generated_Source\PSoC4/cyfitter_cfg.c ****     #define CYXDATA
  70:Generated_Source\PSoC4/cyfitter_cfg.c **** #endif
  71:Generated_Source\PSoC4/cyfitter_cfg.c **** 
  72:Generated_Source\PSoC4/cyfitter_cfg.c **** 
  73:Generated_Source\PSoC4/cyfitter_cfg.c **** CY_CFG_UNUSED
  74:Generated_Source\PSoC4/cyfitter_cfg.c **** static void CYMEMZERO(void *s, size_t n);
  75:Generated_Source\PSoC4/cyfitter_cfg.c **** CY_CFG_UNUSED
  76:Generated_Source\PSoC4/cyfitter_cfg.c **** static void CYMEMZERO(void *s, size_t n)
  77:Generated_Source\PSoC4/cyfitter_cfg.c **** {
  78:Generated_Source\PSoC4/cyfitter_cfg.c **** 	(void)memset(s, 0, n);
  79:Generated_Source\PSoC4/cyfitter_cfg.c **** }
  80:Generated_Source\PSoC4/cyfitter_cfg.c **** CY_CFG_UNUSED
  81:Generated_Source\PSoC4/cyfitter_cfg.c **** static void CYCONFIGCPY(void *dest, const void *src, size_t n);
  82:Generated_Source\PSoC4/cyfitter_cfg.c **** CY_CFG_UNUSED
  83:Generated_Source\PSoC4/cyfitter_cfg.c **** static void CYCONFIGCPY(void *dest, const void *src, size_t n)
  84:Generated_Source\PSoC4/cyfitter_cfg.c **** {
  85:Generated_Source\PSoC4/cyfitter_cfg.c **** 	(void)memcpy(dest, src, n);
  86:Generated_Source\PSoC4/cyfitter_cfg.c **** }
  87:Generated_Source\PSoC4/cyfitter_cfg.c **** CY_CFG_UNUSED
  88:Generated_Source\PSoC4/cyfitter_cfg.c **** static void CYCONFIGCPYCODE(void *dest, const void *src, size_t n);
ARM GAS  C:\Users\casey\AppData\Local\Temp\ccidVM6n.s 			page 3


  89:Generated_Source\PSoC4/cyfitter_cfg.c **** CY_CFG_UNUSED
  90:Generated_Source\PSoC4/cyfitter_cfg.c **** static void CYCONFIGCPYCODE(void *dest, const void *src, size_t n)
  91:Generated_Source\PSoC4/cyfitter_cfg.c **** {
  92:Generated_Source\PSoC4/cyfitter_cfg.c **** 	(void)memcpy(dest, src, n);
  93:Generated_Source\PSoC4/cyfitter_cfg.c **** }
  94:Generated_Source\PSoC4/cyfitter_cfg.c **** 
  95:Generated_Source\PSoC4/cyfitter_cfg.c **** 
  96:Generated_Source\PSoC4/cyfitter_cfg.c **** 
  97:Generated_Source\PSoC4/cyfitter_cfg.c **** 
  98:Generated_Source\PSoC4/cyfitter_cfg.c **** /* Clock startup error codes                                                   */
  99:Generated_Source\PSoC4/cyfitter_cfg.c **** #define CYCLOCKSTART_NO_ERROR    0u
 100:Generated_Source\PSoC4/cyfitter_cfg.c **** #define CYCLOCKSTART_XTAL_ERROR  1u
 101:Generated_Source\PSoC4/cyfitter_cfg.c **** #define CYCLOCKSTART_32KHZ_ERROR 2u
 102:Generated_Source\PSoC4/cyfitter_cfg.c **** #define CYCLOCKSTART_PLL_ERROR   3u
 103:Generated_Source\PSoC4/cyfitter_cfg.c **** #define CYCLOCKSTART_FLL_ERROR   4u
 104:Generated_Source\PSoC4/cyfitter_cfg.c **** #define CYCLOCKSTART_WCO_ERROR   5u
 105:Generated_Source\PSoC4/cyfitter_cfg.c **** 
 106:Generated_Source\PSoC4/cyfitter_cfg.c **** 
 107:Generated_Source\PSoC4/cyfitter_cfg.c **** #ifdef CY_NEED_CYCLOCKSTARTUPERROR
 108:Generated_Source\PSoC4/cyfitter_cfg.c **** /*******************************************************************************
 109:Generated_Source\PSoC4/cyfitter_cfg.c **** * Function Name: CyClockStartupError
 110:Generated_Source\PSoC4/cyfitter_cfg.c **** ********************************************************************************
 111:Generated_Source\PSoC4/cyfitter_cfg.c **** * Summary:
 112:Generated_Source\PSoC4/cyfitter_cfg.c **** *  If an error is encountered during clock configuration (crystal startup error,
 113:Generated_Source\PSoC4/cyfitter_cfg.c **** *  PLL lock error, etc.), the system will end up here.  Unless reimplemented by
 114:Generated_Source\PSoC4/cyfitter_cfg.c **** *  the customer, this function will stop in an infinite loop.
 115:Generated_Source\PSoC4/cyfitter_cfg.c **** *
 116:Generated_Source\PSoC4/cyfitter_cfg.c **** * Parameters:
 117:Generated_Source\PSoC4/cyfitter_cfg.c **** *   void
 118:Generated_Source\PSoC4/cyfitter_cfg.c **** *
 119:Generated_Source\PSoC4/cyfitter_cfg.c **** * Return:
 120:Generated_Source\PSoC4/cyfitter_cfg.c **** *   void
 121:Generated_Source\PSoC4/cyfitter_cfg.c **** *
 122:Generated_Source\PSoC4/cyfitter_cfg.c **** *******************************************************************************/
 123:Generated_Source\PSoC4/cyfitter_cfg.c **** CY_CFG_UNUSED
 124:Generated_Source\PSoC4/cyfitter_cfg.c **** static void CyClockStartupError(uint8 errorCode);
 125:Generated_Source\PSoC4/cyfitter_cfg.c **** CY_CFG_UNUSED
 126:Generated_Source\PSoC4/cyfitter_cfg.c **** static void CyClockStartupError(uint8 errorCode)
 127:Generated_Source\PSoC4/cyfitter_cfg.c **** {
 128:Generated_Source\PSoC4/cyfitter_cfg.c ****     /* To remove the compiler warning if errorCode not used.                */
 129:Generated_Source\PSoC4/cyfitter_cfg.c ****     errorCode = errorCode;
 130:Generated_Source\PSoC4/cyfitter_cfg.c **** 
 131:Generated_Source\PSoC4/cyfitter_cfg.c ****     /* If we have a clock startup error (bad MHz crystal, PLL lock, etc.),  */
 132:Generated_Source\PSoC4/cyfitter_cfg.c ****     /* we will end up here to allow the customer to implement something to  */
 133:Generated_Source\PSoC4/cyfitter_cfg.c ****     /* deal with the clock condition.                                       */
 134:Generated_Source\PSoC4/cyfitter_cfg.c **** 
 135:Generated_Source\PSoC4/cyfitter_cfg.c **** #ifdef CY_CFG_CLOCK_STARTUP_ERROR_CALLBACK
 136:Generated_Source\PSoC4/cyfitter_cfg.c ****     CY_CFG_Clock_Startup_ErrorCallback();
 137:Generated_Source\PSoC4/cyfitter_cfg.c **** #else
 138:Generated_Source\PSoC4/cyfitter_cfg.c ****     /*  If not using CY_CFG_CLOCK_STARTUP_ERROR_CALLBACK, place your clock startup code here. */
 139:Generated_Source\PSoC4/cyfitter_cfg.c ****     /* `#START CyClockStartupError` */
 140:Generated_Source\PSoC4/cyfitter_cfg.c **** 
 141:Generated_Source\PSoC4/cyfitter_cfg.c **** 
 142:Generated_Source\PSoC4/cyfitter_cfg.c **** 
 143:Generated_Source\PSoC4/cyfitter_cfg.c ****     /* `#END` */
 144:Generated_Source\PSoC4/cyfitter_cfg.c **** 
 145:Generated_Source\PSoC4/cyfitter_cfg.c ****     while(1) {}
ARM GAS  C:\Users\casey\AppData\Local\Temp\ccidVM6n.s 			page 4


 146:Generated_Source\PSoC4/cyfitter_cfg.c **** #endif /* CY_CFG_CLOCK_STARTUP_ERROR_CALLBACK */
 147:Generated_Source\PSoC4/cyfitter_cfg.c **** }
 148:Generated_Source\PSoC4/cyfitter_cfg.c **** #endif
 149:Generated_Source\PSoC4/cyfitter_cfg.c **** 
 150:Generated_Source\PSoC4/cyfitter_cfg.c **** #define CY_CFG_BASE_ADDR_COUNT 17u
 151:Generated_Source\PSoC4/cyfitter_cfg.c **** CYPACKED typedef struct
 152:Generated_Source\PSoC4/cyfitter_cfg.c **** {
 153:Generated_Source\PSoC4/cyfitter_cfg.c **** 	uint8 offset;
 154:Generated_Source\PSoC4/cyfitter_cfg.c **** 	uint8 value;
 155:Generated_Source\PSoC4/cyfitter_cfg.c **** } CYPACKED_ATTR cy_cfg_addrvalue_t;
 156:Generated_Source\PSoC4/cyfitter_cfg.c **** 
 157:Generated_Source\PSoC4/cyfitter_cfg.c **** 
 158:Generated_Source\PSoC4/cyfitter_cfg.c **** 
 159:Generated_Source\PSoC4/cyfitter_cfg.c **** /*******************************************************************************
 160:Generated_Source\PSoC4/cyfitter_cfg.c **** * Function Name: cfg_write_bytes32
 161:Generated_Source\PSoC4/cyfitter_cfg.c **** ********************************************************************************
 162:Generated_Source\PSoC4/cyfitter_cfg.c **** * Summary:
 163:Generated_Source\PSoC4/cyfitter_cfg.c **** *  This function is used for setting up the chip configuration areas that
 164:Generated_Source\PSoC4/cyfitter_cfg.c **** *  contain relatively sparse data.
 165:Generated_Source\PSoC4/cyfitter_cfg.c **** *
 166:Generated_Source\PSoC4/cyfitter_cfg.c **** * Parameters:
 167:Generated_Source\PSoC4/cyfitter_cfg.c **** *   void
 168:Generated_Source\PSoC4/cyfitter_cfg.c **** *
 169:Generated_Source\PSoC4/cyfitter_cfg.c **** * Return:
 170:Generated_Source\PSoC4/cyfitter_cfg.c **** *   void
 171:Generated_Source\PSoC4/cyfitter_cfg.c **** *
 172:Generated_Source\PSoC4/cyfitter_cfg.c **** *******************************************************************************/
 173:Generated_Source\PSoC4/cyfitter_cfg.c **** static void cfg_write_bytes32(const uint32 addr_table[], const cy_cfg_addrvalue_t data_table[]);
 174:Generated_Source\PSoC4/cyfitter_cfg.c **** static void cfg_write_bytes32(const uint32 addr_table[], const cy_cfg_addrvalue_t data_table[])
 175:Generated_Source\PSoC4/cyfitter_cfg.c **** {
  27              		.loc 1 175 0
  28              		.cfi_startproc
  29              		@ args = 0, pretend = 0, frame = 0
  30              		@ frame_needed = 0, uses_anonymous_args = 0
  31              	.LVL0:
  32 0000 F0B5     		push	{r4, r5, r6, r7, lr}
  33              		.cfi_def_cfa_offset 20
  34              		.cfi_offset 4, -20
  35              		.cfi_offset 5, -16
  36              		.cfi_offset 6, -12
  37              		.cfi_offset 7, -8
  38              		.cfi_offset 14, -4
  39              	.LVL1:
 176:Generated_Source\PSoC4/cyfitter_cfg.c **** 	/* For 32-bit little-endian architectures */
 177:Generated_Source\PSoC4/cyfitter_cfg.c **** 	uint32 i, j = 0u;
  40              		.loc 1 177 0
  41 0002 0025     		movs	r5, #0
 178:Generated_Source\PSoC4/cyfitter_cfg.c **** 	for (i = 0u; i < CY_CFG_BASE_ADDR_COUNT; i++)
  42              		.loc 1 178 0
  43 0004 0027     		movs	r7, #0
  44 0006 11E0     		b	.L2
  45              	.LVL2:
  46              	.L5:
  47              	.LBB2:
 179:Generated_Source\PSoC4/cyfitter_cfg.c **** 	{
 180:Generated_Source\PSoC4/cyfitter_cfg.c **** 		uint32 baseAddr = addr_table[i];
  48              		.loc 1 180 0
ARM GAS  C:\Users\casey\AppData\Local\Temp\ccidVM6n.s 			page 5


  49 0008 BB00     		lsls	r3, r7, #2
  50 000a C658     		ldr	r6, [r0, r3]
  51              	.LVL3:
 181:Generated_Source\PSoC4/cyfitter_cfg.c **** 		uint8 count = (uint8)baseAddr;
  52              		.loc 1 181 0
  53 000c F3B2     		uxtb	r3, r6
  54              	.LVL4:
 182:Generated_Source\PSoC4/cyfitter_cfg.c **** 		baseAddr &= 0xFFFFFF00u;
  55              		.loc 1 182 0
  56 000e FF22     		movs	r2, #255
  57 0010 9643     		bics	r6, r2
  58              	.LVL5:
 183:Generated_Source\PSoC4/cyfitter_cfg.c **** 		while (count != 0u)
  59              		.loc 1 183 0
  60 0012 08E0     		b	.L3
  61              	.L4:
 184:Generated_Source\PSoC4/cyfitter_cfg.c **** 		{
 185:Generated_Source\PSoC4/cyfitter_cfg.c **** 			CY_SET_REG8((void *)(baseAddr + data_table[j].offset), data_table[j].value);
  62              		.loc 1 185 0
  63 0014 6A00     		lsls	r2, r5, #1
  64 0016 8A18     		adds	r2, r1, r2
  65 0018 1478     		ldrb	r4, [r2]
  66 001a A419     		adds	r4, r4, r6
  67 001c 5278     		ldrb	r2, [r2, #1]
  68 001e 2270     		strb	r2, [r4]
 186:Generated_Source\PSoC4/cyfitter_cfg.c **** 			j++;
  69              		.loc 1 186 0
  70 0020 0135     		adds	r5, r5, #1
  71              	.LVL6:
 187:Generated_Source\PSoC4/cyfitter_cfg.c **** 			count--;
  72              		.loc 1 187 0
  73 0022 013B     		subs	r3, r3, #1
  74              	.LVL7:
  75 0024 DBB2     		uxtb	r3, r3
  76              	.LVL8:
  77              	.L3:
 183:Generated_Source\PSoC4/cyfitter_cfg.c **** 		{
  78              		.loc 1 183 0
  79 0026 002B     		cmp	r3, #0
  80 0028 F4D1     		bne	.L4
  81              	.LBE2:
 178:Generated_Source\PSoC4/cyfitter_cfg.c **** 	{
  82              		.loc 1 178 0 discriminator 2
  83 002a 0137     		adds	r7, r7, #1
  84              	.LVL9:
  85              	.L2:
 178:Generated_Source\PSoC4/cyfitter_cfg.c **** 	{
  86              		.loc 1 178 0 is_stmt 0 discriminator 1
  87 002c 102F     		cmp	r7, #16
  88 002e EBD9     		bls	.L5
 188:Generated_Source\PSoC4/cyfitter_cfg.c **** 		}
 189:Generated_Source\PSoC4/cyfitter_cfg.c **** 	}
 190:Generated_Source\PSoC4/cyfitter_cfg.c **** }
  89              		.loc 1 190 0 is_stmt 1
  90              		@ sp needed
  91              	.LVL10:
  92              	.LVL11:
ARM GAS  C:\Users\casey\AppData\Local\Temp\ccidVM6n.s 			page 6


  93 0030 F0BD     		pop	{r4, r5, r6, r7, pc}
  94              		.cfi_endproc
  95              	.LFE4:
  96              		.size	cfg_write_bytes32, .-cfg_write_bytes32
  97 0032 C046     		.section	.text.CYMEMZERO,"ax",%progbits
  98              		.align	2
  99              		.code	16
 100              		.thumb_func
 101              		.type	CYMEMZERO, %function
 102              	CYMEMZERO:
 103              	.LFB1:
  77:Generated_Source\PSoC4/cyfitter_cfg.c **** 	(void)memset(s, 0, n);
 104              		.loc 1 77 0
 105              		.cfi_startproc
 106              		@ args = 0, pretend = 0, frame = 0
 107              		@ frame_needed = 0, uses_anonymous_args = 0
 108              	.LVL12:
 109 0000 10B5     		push	{r4, lr}
 110              		.cfi_def_cfa_offset 8
 111              		.cfi_offset 4, -8
 112              		.cfi_offset 14, -4
 113 0002 0A00     		movs	r2, r1
  78:Generated_Source\PSoC4/cyfitter_cfg.c **** }
 114              		.loc 1 78 0
 115 0004 0021     		movs	r1, #0
 116              	.LVL13:
 117 0006 FFF7FEFF 		bl	memset
 118              	.LVL14:
  79:Generated_Source\PSoC4/cyfitter_cfg.c **** CY_CFG_UNUSED
 119              		.loc 1 79 0
 120              		@ sp needed
 121 000a 10BD     		pop	{r4, pc}
 122              		.cfi_endproc
 123              	.LFE1:
 124              		.size	CYMEMZERO, .-CYMEMZERO
 125              		.section	.psocinit,"ax",%progbits
 126              		.align	2
 127              		.code	16
 128              		.thumb_func
 129              		.type	ClockSetup, %function
 130              	ClockSetup:
 131              	.LFB5:
 191:Generated_Source\PSoC4/cyfitter_cfg.c **** 
 192:Generated_Source\PSoC4/cyfitter_cfg.c **** 
 193:Generated_Source\PSoC4/cyfitter_cfg.c **** /*******************************************************************************
 194:Generated_Source\PSoC4/cyfitter_cfg.c **** * Function Name: ClockSetup
 195:Generated_Source\PSoC4/cyfitter_cfg.c **** ********************************************************************************
 196:Generated_Source\PSoC4/cyfitter_cfg.c **** *
 197:Generated_Source\PSoC4/cyfitter_cfg.c **** * Summary:
 198:Generated_Source\PSoC4/cyfitter_cfg.c **** *   Performs the initialization of all of the clocks in the device based on the
 199:Generated_Source\PSoC4/cyfitter_cfg.c **** *   settings in the Clock tab of the DWR.  This includes enabling the requested
 200:Generated_Source\PSoC4/cyfitter_cfg.c **** *   clocks and setting the necessary dividers to produce the desired frequency. 
 201:Generated_Source\PSoC4/cyfitter_cfg.c **** *
 202:Generated_Source\PSoC4/cyfitter_cfg.c **** * Parameters:
 203:Generated_Source\PSoC4/cyfitter_cfg.c **** *   void
 204:Generated_Source\PSoC4/cyfitter_cfg.c **** *
 205:Generated_Source\PSoC4/cyfitter_cfg.c **** * Return:
ARM GAS  C:\Users\casey\AppData\Local\Temp\ccidVM6n.s 			page 7


 206:Generated_Source\PSoC4/cyfitter_cfg.c **** *   void
 207:Generated_Source\PSoC4/cyfitter_cfg.c **** *
 208:Generated_Source\PSoC4/cyfitter_cfg.c **** *******************************************************************************/
 209:Generated_Source\PSoC4/cyfitter_cfg.c **** static void ClockSetup(void);
 210:Generated_Source\PSoC4/cyfitter_cfg.c **** CY_CFG_SECTION
 211:Generated_Source\PSoC4/cyfitter_cfg.c **** static void ClockSetup(void)
 212:Generated_Source\PSoC4/cyfitter_cfg.c **** {
 132              		.loc 1 212 0
 133              		.cfi_startproc
 134              		@ args = 0, pretend = 0, frame = 0
 135              		@ frame_needed = 0, uses_anonymous_args = 0
 136 0000 10B5     		push	{r4, lr}
 137              		.cfi_def_cfa_offset 8
 138              		.cfi_offset 4, -8
 139              		.cfi_offset 14, -4
 213:Generated_Source\PSoC4/cyfitter_cfg.c **** 
 214:Generated_Source\PSoC4/cyfitter_cfg.c **** 	/* Set Flash Cycles based on max possible frequency in case a glitch occurs during ClockSetup(). *
 215:Generated_Source\PSoC4/cyfitter_cfg.c **** 	CY_SET_REG32((void CYXDATA *)(CYREG_CPUSS_FLASH_CTL), (0x0012u));
 140              		.loc 1 215 0
 141 0002 1222     		movs	r2, #18
 142 0004 284B     		ldr	r3, .L8
 143 0006 1A60     		str	r2, [r3]
 216:Generated_Source\PSoC4/cyfitter_cfg.c **** 	/* Setup and trim IMO based on desired frequency. */
 217:Generated_Source\PSoC4/cyfitter_cfg.c **** 	CySysClkWriteImoFreq(48u);
 144              		.loc 1 217 0
 145 0008 3020     		movs	r0, #48
 146 000a FFF7FEFF 		bl	CySysClkWriteImoFreq
 147              	.LVL15:
 218:Generated_Source\PSoC4/cyfitter_cfg.c **** 	/* CYDEV_CLK_ILO_CONFIG Starting address: CYDEV_CLK_ILO_CONFIG */
 219:Generated_Source\PSoC4/cyfitter_cfg.c **** 	CY_SET_REG32((void *)(CYREG_CLK_ILO_CONFIG), 0x80000006u);
 148              		.loc 1 219 0
 149 000e 274A     		ldr	r2, .L8+4
 150 0010 274B     		ldr	r3, .L8+8
 151 0012 1A60     		str	r2, [r3]
 220:Generated_Source\PSoC4/cyfitter_cfg.c **** 
 221:Generated_Source\PSoC4/cyfitter_cfg.c **** 
 222:Generated_Source\PSoC4/cyfitter_cfg.c **** 	/* Setup phase aligned clocks */
 223:Generated_Source\PSoC4/cyfitter_cfg.c **** 	CY_SET_REG32((void *)CYREG_PERI_DIV_16_CTL0, 0x00000000u);
 152              		.loc 1 223 0
 153 0014 0024     		movs	r4, #0
 154 0016 274B     		ldr	r3, .L8+12
 155 0018 1C60     		str	r4, [r3]
 224:Generated_Source\PSoC4/cyfitter_cfg.c **** 	CY_SET_REG32((void *)CYREG_PERI_DIV_CMD, 0x8000FF40u);
 156              		.loc 1 224 0
 157 001a 274B     		ldr	r3, .L8+16
 158 001c 274A     		ldr	r2, .L8+20
 159 001e 1A60     		str	r2, [r3]
 225:Generated_Source\PSoC4/cyfitter_cfg.c **** 	CY_SET_REG32((void *)CYREG_PERI_DIV_24_5_CTL, 0x061A7F00u);
 160              		.loc 1 225 0
 161 0020 2749     		ldr	r1, .L8+24
 162 0022 284A     		ldr	r2, .L8+28
 163 0024 1160     		str	r1, [r2]
 226:Generated_Source\PSoC4/cyfitter_cfg.c **** 	CY_SET_REG32((void *)CYREG_PERI_DIV_CMD, 0x8000FFC0u);
 164              		.loc 1 226 0
 165 0026 284A     		ldr	r2, .L8+32
 166 0028 1A60     		str	r2, [r3]
 227:Generated_Source\PSoC4/cyfitter_cfg.c **** 	CY_SET_REG32((void *)CYREG_PERI_DIV_16_CTL1, 0x00000100u);
ARM GAS  C:\Users\casey\AppData\Local\Temp\ccidVM6n.s 			page 8


 167              		.loc 1 227 0
 168 002a 8021     		movs	r1, #128
 169 002c 4900     		lsls	r1, r1, #1
 170 002e 274A     		ldr	r2, .L8+36
 171 0030 1160     		str	r1, [r2]
 228:Generated_Source\PSoC4/cyfitter_cfg.c **** 	CY_SET_REG32((void *)CYREG_PERI_DIV_CMD, 0x8000FF41u);
 172              		.loc 1 228 0
 173 0032 274A     		ldr	r2, .L8+40
 174 0034 1A60     		str	r2, [r3]
 229:Generated_Source\PSoC4/cyfitter_cfg.c **** 	CY_SET_REG32((void *)CYREG_PERI_DIV_16_CTL2, 0x00000300u);
 175              		.loc 1 229 0
 176 0036 C022     		movs	r2, #192
 177 0038 9200     		lsls	r2, r2, #2
 178 003a 2649     		ldr	r1, .L8+44
 179 003c 0A60     		str	r2, [r1]
 230:Generated_Source\PSoC4/cyfitter_cfg.c **** 	CY_SET_REG32((void *)CYREG_PERI_DIV_CMD, 0x8000FF42u);
 180              		.loc 1 230 0
 181 003e 2649     		ldr	r1, .L8+48
 182 0040 1960     		str	r1, [r3]
 231:Generated_Source\PSoC4/cyfitter_cfg.c **** 	CY_SET_REG32((void *)CYREG_PERI_DIV_16_CTL3, 0x00000300u);
 183              		.loc 1 231 0
 184 0042 2649     		ldr	r1, .L8+52
 185 0044 0A60     		str	r2, [r1]
 232:Generated_Source\PSoC4/cyfitter_cfg.c **** 	CY_SET_REG32((void *)CYREG_PERI_DIV_CMD, 0x8000FF43u);
 186              		.loc 1 232 0
 187 0046 264A     		ldr	r2, .L8+56
 188 0048 1A60     		str	r2, [r3]
 233:Generated_Source\PSoC4/cyfitter_cfg.c **** 	CY_SET_REG32((void *)CYREG_PERI_DIV_16_CTL4, 0x00000E00u);
 189              		.loc 1 233 0
 190 004a E021     		movs	r1, #224
 191 004c 0901     		lsls	r1, r1, #4
 192 004e 254A     		ldr	r2, .L8+60
 193 0050 1160     		str	r1, [r2]
 234:Generated_Source\PSoC4/cyfitter_cfg.c **** 	CY_SET_REG32((void *)CYREG_PERI_DIV_CMD, 0x8000FF44u);
 194              		.loc 1 234 0
 195 0052 254A     		ldr	r2, .L8+64
 196 0054 1A60     		str	r2, [r3]
 235:Generated_Source\PSoC4/cyfitter_cfg.c **** 	CY_SET_REG32((void *)CYREG_PERI_DIV_16_CTL5, 0x00001C00u);
 197              		.loc 1 235 0
 198 0056 E021     		movs	r1, #224
 199 0058 4901     		lsls	r1, r1, #5
 200 005a 244A     		ldr	r2, .L8+68
 201 005c 1160     		str	r1, [r2]
 236:Generated_Source\PSoC4/cyfitter_cfg.c **** 	CY_SET_REG32((void *)CYREG_PERI_DIV_CMD, 0x8000FF45u);
 202              		.loc 1 236 0
 203 005e 244A     		ldr	r2, .L8+72
 204 0060 1A60     		str	r2, [r3]
 237:Generated_Source\PSoC4/cyfitter_cfg.c **** 
 238:Generated_Source\PSoC4/cyfitter_cfg.c **** 	/* CYDEV_CLK_IMO_CONFIG Starting address: CYDEV_CLK_IMO_CONFIG */
 239:Generated_Source\PSoC4/cyfitter_cfg.c **** 	CY_SET_REG32((void *)(CYREG_CLK_IMO_CONFIG), 0x82000000u);
 205              		.loc 1 239 0
 206 0062 8222     		movs	r2, #130
 207 0064 1206     		lsls	r2, r2, #24
 208 0066 234B     		ldr	r3, .L8+76
 209 0068 1A60     		str	r2, [r3]
 240:Generated_Source\PSoC4/cyfitter_cfg.c **** 
 241:Generated_Source\PSoC4/cyfitter_cfg.c **** 	/* CYDEV_CLK_SELECT Starting address: CYDEV_CLK_SELECT */
ARM GAS  C:\Users\casey\AppData\Local\Temp\ccidVM6n.s 			page 9


 242:Generated_Source\PSoC4/cyfitter_cfg.c **** 	CY_SET_REG32((void *)(CYREG_CLK_SELECT), 0x00040249u);
 210              		.loc 1 242 0
 211 006a 234A     		ldr	r2, .L8+80
 212 006c 234B     		ldr	r3, .L8+84
 213 006e 1A60     		str	r2, [r3]
 243:Generated_Source\PSoC4/cyfitter_cfg.c **** 
 244:Generated_Source\PSoC4/cyfitter_cfg.c **** 	/* CYDEV_PERI_PCLK_CTL22 Starting address: CYDEV_PERI_PCLK_CTL22 */
 245:Generated_Source\PSoC4/cyfitter_cfg.c **** 	CY_SET_REG32((void *)(CYREG_PERI_PCLK_CTL22), 0x000000C0u);
 214              		.loc 1 245 0
 215 0070 C022     		movs	r2, #192
 216 0072 234B     		ldr	r3, .L8+88
 217 0074 1A60     		str	r2, [r3]
 246:Generated_Source\PSoC4/cyfitter_cfg.c **** 
 247:Generated_Source\PSoC4/cyfitter_cfg.c **** 	/* CYDEV_PERI_PCLK_CTL20 Starting address: CYDEV_PERI_PCLK_CTL20 */
 248:Generated_Source\PSoC4/cyfitter_cfg.c **** 	CY_SET_REG32((void *)(CYREG_PERI_PCLK_CTL20), 0x00000041u);
 218              		.loc 1 248 0
 219 0076 7F3A     		subs	r2, r2, #127
 220 0078 224B     		ldr	r3, .L8+92
 221 007a 1A60     		str	r2, [r3]
 249:Generated_Source\PSoC4/cyfitter_cfg.c **** 
 250:Generated_Source\PSoC4/cyfitter_cfg.c **** 	/* CYDEV_PERI_PCLK_CTL16 Starting address: CYDEV_PERI_PCLK_CTL16 */
 251:Generated_Source\PSoC4/cyfitter_cfg.c **** 	CY_SET_REG32((void *)(CYREG_PERI_PCLK_CTL16), 0x00000042u);
 222              		.loc 1 251 0
 223 007c 0132     		adds	r2, r2, #1
 224 007e 224B     		ldr	r3, .L8+96
 225 0080 1A60     		str	r2, [r3]
 252:Generated_Source\PSoC4/cyfitter_cfg.c **** 
 253:Generated_Source\PSoC4/cyfitter_cfg.c **** 	/* CYDEV_PERI_PCLK_CTL15 Starting address: CYDEV_PERI_PCLK_CTL15 */
 254:Generated_Source\PSoC4/cyfitter_cfg.c **** 	CY_SET_REG32((void *)(CYREG_PERI_PCLK_CTL15), 0x00000043u);
 226              		.loc 1 254 0
 227 0082 0132     		adds	r2, r2, #1
 228 0084 214B     		ldr	r3, .L8+100
 229 0086 1A60     		str	r2, [r3]
 255:Generated_Source\PSoC4/cyfitter_cfg.c **** 
 256:Generated_Source\PSoC4/cyfitter_cfg.c **** 	/* CYDEV_PERI_PCLK_CTL10 Starting address: CYDEV_PERI_PCLK_CTL10 */
 257:Generated_Source\PSoC4/cyfitter_cfg.c **** 	CY_SET_REG32((void *)(CYREG_PERI_PCLK_CTL10), 0x00000044u);
 230              		.loc 1 257 0
 231 0088 0132     		adds	r2, r2, #1
 232 008a 214B     		ldr	r3, .L8+104
 233 008c 1A60     		str	r2, [r3]
 258:Generated_Source\PSoC4/cyfitter_cfg.c **** 
 259:Generated_Source\PSoC4/cyfitter_cfg.c **** 	/* CYDEV_PERI_PCLK_CTL3 Starting address: CYDEV_PERI_PCLK_CTL3 */
 260:Generated_Source\PSoC4/cyfitter_cfg.c **** 	CY_SET_REG32((void *)(CYREG_PERI_PCLK_CTL3), 0x00000045u);
 234              		.loc 1 260 0
 235 008e 0132     		adds	r2, r2, #1
 236 0090 204B     		ldr	r3, .L8+108
 237 0092 1A60     		str	r2, [r3]
 261:Generated_Source\PSoC4/cyfitter_cfg.c **** 
 262:Generated_Source\PSoC4/cyfitter_cfg.c **** 	(void)CyIntSetVector(8u, &CySysWdtIsr);
 238              		.loc 1 262 0
 239 0094 2049     		ldr	r1, .L8+112
 240 0096 0820     		movs	r0, #8
 241 0098 FFF7FEFF 		bl	CyIntSetVector
 242              	.LVL16:
 263:Generated_Source\PSoC4/cyfitter_cfg.c **** 	CyIntEnable(8u);
 243              		.loc 1 263 0
 244 009c 0820     		movs	r0, #8
ARM GAS  C:\Users\casey\AppData\Local\Temp\ccidVM6n.s 			page 10


 245 009e FFF7FEFF 		bl	CyIntEnable
 246              	.LVL17:
 264:Generated_Source\PSoC4/cyfitter_cfg.c **** 	CY_SET_REG32((void *)(CYREG_WDT_CONFIG), 0x00000000u);
 247              		.loc 1 264 0
 248 00a2 1E4B     		ldr	r3, .L8+116
 249 00a4 1C60     		str	r4, [r3]
 265:Generated_Source\PSoC4/cyfitter_cfg.c **** }
 250              		.loc 1 265 0
 251              		@ sp needed
 252 00a6 10BD     		pop	{r4, pc}
 253              	.L9:
 254              		.align	2
 255              	.L8:
 256 00a8 30001040 		.word	1074790448
 257 00ac 06000080 		.word	-2147483642
 258 00b0 04010B40 		.word	1074462980
 259 00b4 00030140 		.word	1073808128
 260 00b8 00000140 		.word	1073807360
 261 00bc 40FF0080 		.word	-2147418304
 262 00c0 007F1A06 		.word	102399744
 263 00c4 00050140 		.word	1073808640
 264 00c8 C0FF0080 		.word	-2147418176
 265 00cc 04030140 		.word	1073808132
 266 00d0 41FF0080 		.word	-2147418303
 267 00d4 08030140 		.word	1073808136
 268 00d8 42FF0080 		.word	-2147418302
 269 00dc 0C030140 		.word	1073808140
 270 00e0 43FF0080 		.word	-2147418301
 271 00e4 10030140 		.word	1073808144
 272 00e8 44FF0080 		.word	-2147418300
 273 00ec 14030140 		.word	1073808148
 274 00f0 45FF0080 		.word	-2147418299
 275 00f4 08010B40 		.word	1074462984
 276 00f8 49020400 		.word	262729
 277 00fc 00010B40 		.word	1074462976
 278 0100 58010140 		.word	1073807704
 279 0104 50010140 		.word	1073807696
 280 0108 40010140 		.word	1073807680
 281 010c 3C010140 		.word	1073807676
 282 0110 28010140 		.word	1073807656
 283 0114 0C010140 		.word	1073807628
 284 0118 00000000 		.word	CySysWdtIsr
 285 011c 0C020B40 		.word	1074463244
 286              		.cfi_endproc
 287              	.LFE5:
 288              		.size	ClockSetup, .-ClockSetup
 289              		.section	.text.SetAnalogRoutingPumps,"ax",%progbits
 290              		.align	2
 291              		.global	SetAnalogRoutingPumps
 292              		.code	16
 293              		.thumb_func
 294              		.type	SetAnalogRoutingPumps, %function
 295              	SetAnalogRoutingPumps:
 296              	.LFB7:
 266:Generated_Source\PSoC4/cyfitter_cfg.c **** 
 267:Generated_Source\PSoC4/cyfitter_cfg.c **** 
 268:Generated_Source\PSoC4/cyfitter_cfg.c **** /* Analog API Functions */
ARM GAS  C:\Users\casey\AppData\Local\Temp\ccidVM6n.s 			page 11


 269:Generated_Source\PSoC4/cyfitter_cfg.c **** 
 270:Generated_Source\PSoC4/cyfitter_cfg.c **** 
 271:Generated_Source\PSoC4/cyfitter_cfg.c **** /*******************************************************************************
 272:Generated_Source\PSoC4/cyfitter_cfg.c **** * Function Name: AnalogSetDefault
 273:Generated_Source\PSoC4/cyfitter_cfg.c **** ********************************************************************************
 274:Generated_Source\PSoC4/cyfitter_cfg.c **** *
 275:Generated_Source\PSoC4/cyfitter_cfg.c **** * Summary:
 276:Generated_Source\PSoC4/cyfitter_cfg.c **** *  Sets up the analog portions of the chip to default values based on chip
 277:Generated_Source\PSoC4/cyfitter_cfg.c **** *  configuration options from the project.
 278:Generated_Source\PSoC4/cyfitter_cfg.c **** *
 279:Generated_Source\PSoC4/cyfitter_cfg.c **** * Parameters:
 280:Generated_Source\PSoC4/cyfitter_cfg.c **** *  void
 281:Generated_Source\PSoC4/cyfitter_cfg.c **** *
 282:Generated_Source\PSoC4/cyfitter_cfg.c **** * Return:
 283:Generated_Source\PSoC4/cyfitter_cfg.c **** *  void
 284:Generated_Source\PSoC4/cyfitter_cfg.c **** *
 285:Generated_Source\PSoC4/cyfitter_cfg.c **** *******************************************************************************/
 286:Generated_Source\PSoC4/cyfitter_cfg.c **** static void AnalogSetDefault(void);
 287:Generated_Source\PSoC4/cyfitter_cfg.c **** static void AnalogSetDefault(void)
 288:Generated_Source\PSoC4/cyfitter_cfg.c **** {
 289:Generated_Source\PSoC4/cyfitter_cfg.c **** 	CY_SET_XTND_REG32((void CYFAR *)CYREG_CTBM0_DFT_CTRL, 0x00000003u);
 290:Generated_Source\PSoC4/cyfitter_cfg.c **** 	CY_SET_XTND_REG32((void CYFAR *)CYREG_CTBM1_DFT_CTRL, 0x00000003u);
 291:Generated_Source\PSoC4/cyfitter_cfg.c **** 	CY_SET_XTND_REG32((void CYFAR *)CYREG_SAR_CTRL, 0x80000000u);
 292:Generated_Source\PSoC4/cyfitter_cfg.c **** 	CY_SET_XTND_REG32((void CYFAR *)CYREG_SAR_MUX_SWITCH0, 0x00000010u);
 293:Generated_Source\PSoC4/cyfitter_cfg.c **** 	CY_SET_XTND_REG32((void CYFAR *)CYREG_PASS_DSAB_DSAB_CTRL, 0x00000000u);
 294:Generated_Source\PSoC4/cyfitter_cfg.c **** 	SetAnalogRoutingPumps(1);
 295:Generated_Source\PSoC4/cyfitter_cfg.c **** }
 296:Generated_Source\PSoC4/cyfitter_cfg.c **** 
 297:Generated_Source\PSoC4/cyfitter_cfg.c **** 
 298:Generated_Source\PSoC4/cyfitter_cfg.c **** /*******************************************************************************
 299:Generated_Source\PSoC4/cyfitter_cfg.c **** * Function Name: SetAnalogRoutingPumps
 300:Generated_Source\PSoC4/cyfitter_cfg.c **** ********************************************************************************
 301:Generated_Source\PSoC4/cyfitter_cfg.c **** *
 302:Generated_Source\PSoC4/cyfitter_cfg.c **** * Summary:
 303:Generated_Source\PSoC4/cyfitter_cfg.c **** * Enables or disables the analog pumps feeding analog routing switches.
 304:Generated_Source\PSoC4/cyfitter_cfg.c **** * Intended to be called at startup, based on the Vdda system configuration;
 305:Generated_Source\PSoC4/cyfitter_cfg.c **** * may be called during operation when the user informs us that the Vdda voltage crossed the pump th
 306:Generated_Source\PSoC4/cyfitter_cfg.c **** *
 307:Generated_Source\PSoC4/cyfitter_cfg.c **** * Parameters:
 308:Generated_Source\PSoC4/cyfitter_cfg.c **** *  enabled - 1 to enable the pumps, 0 to disable the pumps
 309:Generated_Source\PSoC4/cyfitter_cfg.c **** *
 310:Generated_Source\PSoC4/cyfitter_cfg.c **** * Return:
 311:Generated_Source\PSoC4/cyfitter_cfg.c **** *  void
 312:Generated_Source\PSoC4/cyfitter_cfg.c **** *
 313:Generated_Source\PSoC4/cyfitter_cfg.c **** *******************************************************************************/
 314:Generated_Source\PSoC4/cyfitter_cfg.c **** void SetAnalogRoutingPumps(uint8 enabled)
 315:Generated_Source\PSoC4/cyfitter_cfg.c **** {
 297              		.loc 1 315 0
 298              		.cfi_startproc
 299              		@ args = 0, pretend = 0, frame = 0
 300              		@ frame_needed = 0, uses_anonymous_args = 0
 301              		@ link register save eliminated.
 302              	.LVL18:
 316:Generated_Source\PSoC4/cyfitter_cfg.c **** 	uint32 regValue = CY_GET_XTND_REG32((void *)(CYREG_SAR_PUMP_CTRL));
 303              		.loc 1 316 0
 304 0000 064B     		ldr	r3, .L13
 305 0002 1B68     		ldr	r3, [r3]
ARM GAS  C:\Users\casey\AppData\Local\Temp\ccidVM6n.s 			page 12


 306              	.LVL19:
 317:Generated_Source\PSoC4/cyfitter_cfg.c **** 	if (enabled != 0u)
 307              		.loc 1 317 0
 308 0004 0028     		cmp	r0, #0
 309 0006 03D0     		beq	.L11
 318:Generated_Source\PSoC4/cyfitter_cfg.c **** 	{
 319:Generated_Source\PSoC4/cyfitter_cfg.c **** 		regValue |= 0x80000000u;
 310              		.loc 1 319 0
 311 0008 8022     		movs	r2, #128
 312 000a 1206     		lsls	r2, r2, #24
 313 000c 1343     		orrs	r3, r2
 314              	.LVL20:
 315 000e 01E0     		b	.L12
 316              	.L11:
 320:Generated_Source\PSoC4/cyfitter_cfg.c **** 	}
 321:Generated_Source\PSoC4/cyfitter_cfg.c **** 	else
 322:Generated_Source\PSoC4/cyfitter_cfg.c **** 	{
 323:Generated_Source\PSoC4/cyfitter_cfg.c **** 		regValue &= ~0x80000000u;
 317              		.loc 1 323 0
 318 0010 5B00     		lsls	r3, r3, #1
 319              	.LVL21:
 320 0012 5B08     		lsrs	r3, r3, #1
 321              	.LVL22:
 322              	.L12:
 324:Generated_Source\PSoC4/cyfitter_cfg.c **** 	}
 325:Generated_Source\PSoC4/cyfitter_cfg.c **** 	CY_SET_XTND_REG32((void *)(CYREG_SAR_PUMP_CTRL), regValue);
 323              		.loc 1 325 0
 324 0014 014A     		ldr	r2, .L13
 325 0016 1360     		str	r3, [r2]
 326:Generated_Source\PSoC4/cyfitter_cfg.c **** }
 326              		.loc 1 326 0
 327              		@ sp needed
 328 0018 7047     		bx	lr
 329              	.L14:
 330 001a C046     		.align	2
 331              	.L13:
 332 001c 80033A40 		.word	1077543808
 333              		.cfi_endproc
 334              	.LFE7:
 335              		.size	SetAnalogRoutingPumps, .-SetAnalogRoutingPumps
 336              		.section	.text.AnalogSetDefault,"ax",%progbits
 337              		.align	2
 338              		.code	16
 339              		.thumb_func
 340              		.type	AnalogSetDefault, %function
 341              	AnalogSetDefault:
 342              	.LFB6:
 288:Generated_Source\PSoC4/cyfitter_cfg.c **** 	CY_SET_XTND_REG32((void CYFAR *)CYREG_CTBM0_DFT_CTRL, 0x00000003u);
 343              		.loc 1 288 0
 344              		.cfi_startproc
 345              		@ args = 0, pretend = 0, frame = 0
 346              		@ frame_needed = 0, uses_anonymous_args = 0
 347 0000 10B5     		push	{r4, lr}
 348              		.cfi_def_cfa_offset 8
 349              		.cfi_offset 4, -8
 350              		.cfi_offset 14, -4
 289:Generated_Source\PSoC4/cyfitter_cfg.c **** 	CY_SET_XTND_REG32((void CYFAR *)CYREG_CTBM1_DFT_CTRL, 0x00000003u);
ARM GAS  C:\Users\casey\AppData\Local\Temp\ccidVM6n.s 			page 13


 351              		.loc 1 289 0
 352 0002 0323     		movs	r3, #3
 353 0004 084A     		ldr	r2, .L16
 354 0006 1360     		str	r3, [r2]
 290:Generated_Source\PSoC4/cyfitter_cfg.c **** 	CY_SET_XTND_REG32((void CYFAR *)CYREG_SAR_CTRL, 0x80000000u);
 355              		.loc 1 290 0
 356 0008 084A     		ldr	r2, .L16+4
 357 000a 1360     		str	r3, [r2]
 291:Generated_Source\PSoC4/cyfitter_cfg.c **** 	CY_SET_XTND_REG32((void CYFAR *)CYREG_SAR_MUX_SWITCH0, 0x00000010u);
 358              		.loc 1 291 0
 359 000c 8022     		movs	r2, #128
 360 000e 1206     		lsls	r2, r2, #24
 361 0010 074B     		ldr	r3, .L16+8
 362 0012 1A60     		str	r2, [r3]
 292:Generated_Source\PSoC4/cyfitter_cfg.c **** 	CY_SET_XTND_REG32((void CYFAR *)CYREG_PASS_DSAB_DSAB_CTRL, 0x00000000u);
 363              		.loc 1 292 0
 364 0014 1022     		movs	r2, #16
 365 0016 074B     		ldr	r3, .L16+12
 366 0018 1A60     		str	r2, [r3]
 293:Generated_Source\PSoC4/cyfitter_cfg.c **** 	SetAnalogRoutingPumps(1);
 367              		.loc 1 293 0
 368 001a 0022     		movs	r2, #0
 369 001c 064B     		ldr	r3, .L16+16
 370 001e 1A60     		str	r2, [r3]
 294:Generated_Source\PSoC4/cyfitter_cfg.c **** }
 371              		.loc 1 294 0
 372 0020 0120     		movs	r0, #1
 373 0022 FFF7FEFF 		bl	SetAnalogRoutingPumps
 374              	.LVL23:
 295:Generated_Source\PSoC4/cyfitter_cfg.c **** 
 375              		.loc 1 295 0
 376              		@ sp needed
 377 0026 10BD     		pop	{r4, pc}
 378              	.L17:
 379              		.align	2
 380              	.L16:
 381 0028 30003040 		.word	1076887600
 382 002c 30003140 		.word	1076953136
 383 0030 00003A40 		.word	1077542912
 384 0034 00033A40 		.word	1077543680
 385 0038 000E3F40 		.word	1077874176
 386              		.cfi_endproc
 387              	.LFE6:
 388              		.size	AnalogSetDefault, .-AnalogSetDefault
 389              		.section	.psocinit
 390              		.align	2
 391              		.global	cyfitter_cfg
 392              		.code	16
 393              		.thumb_func
 394              		.type	cyfitter_cfg, %function
 395              	cyfitter_cfg:
 396              	.LFB8:
 327:Generated_Source\PSoC4/cyfitter_cfg.c **** 
 328:Generated_Source\PSoC4/cyfitter_cfg.c **** 
 329:Generated_Source\PSoC4/cyfitter_cfg.c **** 
 330:Generated_Source\PSoC4/cyfitter_cfg.c **** 
 331:Generated_Source\PSoC4/cyfitter_cfg.c **** /*******************************************************************************
ARM GAS  C:\Users\casey\AppData\Local\Temp\ccidVM6n.s 			page 14


 332:Generated_Source\PSoC4/cyfitter_cfg.c **** * Function Name: cyfitter_cfg
 333:Generated_Source\PSoC4/cyfitter_cfg.c **** ********************************************************************************
 334:Generated_Source\PSoC4/cyfitter_cfg.c **** * Summary:
 335:Generated_Source\PSoC4/cyfitter_cfg.c **** *  This function is called by the start-up code for the selected device. It
 336:Generated_Source\PSoC4/cyfitter_cfg.c **** *  performs all of the necessary device configuration based on the design
 337:Generated_Source\PSoC4/cyfitter_cfg.c **** *  settings.  This includes settings from the Design Wide Resources (DWR) such
 338:Generated_Source\PSoC4/cyfitter_cfg.c **** *  as Clocks and Pins as well as any component configuration that is necessary.
 339:Generated_Source\PSoC4/cyfitter_cfg.c **** *
 340:Generated_Source\PSoC4/cyfitter_cfg.c **** * Parameters:
 341:Generated_Source\PSoC4/cyfitter_cfg.c **** *   void
 342:Generated_Source\PSoC4/cyfitter_cfg.c **** *
 343:Generated_Source\PSoC4/cyfitter_cfg.c **** * Return:
 344:Generated_Source\PSoC4/cyfitter_cfg.c **** *   void
 345:Generated_Source\PSoC4/cyfitter_cfg.c **** *
 346:Generated_Source\PSoC4/cyfitter_cfg.c **** *******************************************************************************/
 347:Generated_Source\PSoC4/cyfitter_cfg.c **** CY_CFG_SECTION
 348:Generated_Source\PSoC4/cyfitter_cfg.c **** void cyfitter_cfg(void)
 349:Generated_Source\PSoC4/cyfitter_cfg.c **** {
 397              		.loc 1 349 0
 398              		.cfi_startproc
 399              		@ args = 0, pretend = 0, frame = 0
 400              		@ frame_needed = 0, uses_anonymous_args = 0
 401 0120 10B5     		push	{r4, lr}
 402              		.cfi_def_cfa_offset 8
 403              		.cfi_offset 4, -8
 404              		.cfi_offset 14, -4
 350:Generated_Source\PSoC4/cyfitter_cfg.c **** 	/* Disable interrupts by default. Let user enable if/when they want. */
 351:Generated_Source\PSoC4/cyfitter_cfg.c **** 	CyGlobalIntDisable;
 405              		.loc 1 351 0
 406              		.syntax divided
 407              	@ 351 "Generated_Source\PSoC4\cyfitter_cfg.c" 1
 408 0122 72B6     		CPSID   i
 409              	@ 0 "" 2
 352:Generated_Source\PSoC4/cyfitter_cfg.c **** 
 353:Generated_Source\PSoC4/cyfitter_cfg.c **** 	/* Enable the clock in the interrupt controller for the routed interrupts */
 354:Generated_Source\PSoC4/cyfitter_cfg.c **** 	CY_SET_REG8((void *)CYREG_UDB_UDB_INT_CLK_CTL, 0x01u);
 410              		.loc 1 354 0
 411              		.thumb
 412              		.syntax unified
 413 0124 0122     		movs	r2, #1
 414 0126 454B     		ldr	r3, .L21
 415 0128 1A70     		strb	r2, [r3]
 416              	.LVL24:
 417              	.LBB3:
 355:Generated_Source\PSoC4/cyfitter_cfg.c **** 	{
 356:Generated_Source\PSoC4/cyfitter_cfg.c **** 		static const uint32 CYCODE cy_cfg_addr_table[] = {
 357:Generated_Source\PSoC4/cyfitter_cfg.c **** 			0x400F0006u, /* Base address: 0x400F0000 Count: 6 */
 358:Generated_Source\PSoC4/cyfitter_cfg.c **** 			0x400F3065u, /* Base address: 0x400F3000 Count: 101 */
 359:Generated_Source\PSoC4/cyfitter_cfg.c **** 			0x400F3145u, /* Base address: 0x400F3100 Count: 69 */
 360:Generated_Source\PSoC4/cyfitter_cfg.c **** 			0x400F3304u, /* Base address: 0x400F3300 Count: 4 */
 361:Generated_Source\PSoC4/cyfitter_cfg.c **** 			0x400F343Cu, /* Base address: 0x400F3400 Count: 60 */
 362:Generated_Source\PSoC4/cyfitter_cfg.c **** 			0x400F3520u, /* Base address: 0x400F3500 Count: 32 */
 363:Generated_Source\PSoC4/cyfitter_cfg.c **** 			0x400F361Fu, /* Base address: 0x400F3600 Count: 31 */
 364:Generated_Source\PSoC4/cyfitter_cfg.c **** 			0x400F3715u, /* Base address: 0x400F3700 Count: 21 */
 365:Generated_Source\PSoC4/cyfitter_cfg.c **** 			0x400F400Cu, /* Base address: 0x400F4000 Count: 12 */
 366:Generated_Source\PSoC4/cyfitter_cfg.c **** 			0x400F4107u, /* Base address: 0x400F4100 Count: 7 */
 367:Generated_Source\PSoC4/cyfitter_cfg.c **** 			0x400F4207u, /* Base address: 0x400F4200 Count: 7 */
ARM GAS  C:\Users\casey\AppData\Local\Temp\ccidVM6n.s 			page 15


 368:Generated_Source\PSoC4/cyfitter_cfg.c **** 			0x400F4305u, /* Base address: 0x400F4300 Count: 5 */
 369:Generated_Source\PSoC4/cyfitter_cfg.c **** 			0x400F4403u, /* Base address: 0x400F4400 Count: 3 */
 370:Generated_Source\PSoC4/cyfitter_cfg.c **** 			0x400F4508u, /* Base address: 0x400F4500 Count: 8 */
 371:Generated_Source\PSoC4/cyfitter_cfg.c **** 			0x400F4604u, /* Base address: 0x400F4600 Count: 4 */
 372:Generated_Source\PSoC4/cyfitter_cfg.c **** 			0x400F4702u, /* Base address: 0x400F4700 Count: 2 */
 373:Generated_Source\PSoC4/cyfitter_cfg.c **** 			0x400F6002u, /* Base address: 0x400F6000 Count: 2 */
 374:Generated_Source\PSoC4/cyfitter_cfg.c **** 		};
 375:Generated_Source\PSoC4/cyfitter_cfg.c **** 
 376:Generated_Source\PSoC4/cyfitter_cfg.c **** 		static const cy_cfg_addrvalue_t CYCODE cy_cfg_data_table[] = {
 377:Generated_Source\PSoC4/cyfitter_cfg.c **** 			{0x00u, 0x18u},
 378:Generated_Source\PSoC4/cyfitter_cfg.c **** 			{0x10u, 0x18u},
 379:Generated_Source\PSoC4/cyfitter_cfg.c **** 			{0x20u, 0x14u},
 380:Generated_Source\PSoC4/cyfitter_cfg.c **** 			{0x30u, 0x0Cu},
 381:Generated_Source\PSoC4/cyfitter_cfg.c **** 			{0x85u, 0x03u},
 382:Generated_Source\PSoC4/cyfitter_cfg.c **** 			{0x86u, 0x0Du},
 383:Generated_Source\PSoC4/cyfitter_cfg.c **** 			{0x00u, 0x20u},
 384:Generated_Source\PSoC4/cyfitter_cfg.c **** 			{0x01u, 0x02u},
 385:Generated_Source\PSoC4/cyfitter_cfg.c **** 			{0x04u, 0x63u},
 386:Generated_Source\PSoC4/cyfitter_cfg.c **** 			{0x05u, 0x02u},
 387:Generated_Source\PSoC4/cyfitter_cfg.c **** 			{0x06u, 0x1Cu},
 388:Generated_Source\PSoC4/cyfitter_cfg.c **** 			{0x08u, 0x04u},
 389:Generated_Source\PSoC4/cyfitter_cfg.c **** 			{0x0Au, 0xD3u},
 390:Generated_Source\PSoC4/cyfitter_cfg.c **** 			{0x0Cu, 0x80u},
 391:Generated_Source\PSoC4/cyfitter_cfg.c **** 			{0x0Fu, 0x05u},
 392:Generated_Source\PSoC4/cyfitter_cfg.c **** 			{0x11u, 0x02u},
 393:Generated_Source\PSoC4/cyfitter_cfg.c **** 			{0x14u, 0x01u},
 394:Generated_Source\PSoC4/cyfitter_cfg.c **** 			{0x15u, 0x02u},
 395:Generated_Source\PSoC4/cyfitter_cfg.c **** 			{0x16u, 0x02u},
 396:Generated_Source\PSoC4/cyfitter_cfg.c **** 			{0x1Au, 0x08u},
 397:Generated_Source\PSoC4/cyfitter_cfg.c **** 			{0x1Bu, 0x04u},
 398:Generated_Source\PSoC4/cyfitter_cfg.c **** 			{0x1Fu, 0x04u},
 399:Generated_Source\PSoC4/cyfitter_cfg.c **** 			{0x23u, 0x01u},
 400:Generated_Source\PSoC4/cyfitter_cfg.c **** 			{0x24u, 0x01u},
 401:Generated_Source\PSoC4/cyfitter_cfg.c **** 			{0x28u, 0x02u},
 402:Generated_Source\PSoC4/cyfitter_cfg.c **** 			{0x2Bu, 0x02u},
 403:Generated_Source\PSoC4/cyfitter_cfg.c **** 			{0x2Eu, 0x20u},
 404:Generated_Source\PSoC4/cyfitter_cfg.c **** 			{0x2Fu, 0x01u},
 405:Generated_Source\PSoC4/cyfitter_cfg.c **** 			{0x30u, 0xE0u},
 406:Generated_Source\PSoC4/cyfitter_cfg.c **** 			{0x31u, 0x02u},
 407:Generated_Source\PSoC4/cyfitter_cfg.c **** 			{0x32u, 0x07u},
 408:Generated_Source\PSoC4/cyfitter_cfg.c **** 			{0x33u, 0x04u},
 409:Generated_Source\PSoC4/cyfitter_cfg.c **** 			{0x34u, 0x0Cu},
 410:Generated_Source\PSoC4/cyfitter_cfg.c **** 			{0x35u, 0x01u},
 411:Generated_Source\PSoC4/cyfitter_cfg.c **** 			{0x36u, 0x10u},
 412:Generated_Source\PSoC4/cyfitter_cfg.c **** 			{0x38u, 0x02u},
 413:Generated_Source\PSoC4/cyfitter_cfg.c **** 			{0x3Fu, 0x15u},
 414:Generated_Source\PSoC4/cyfitter_cfg.c **** 			{0x40u, 0x45u},
 415:Generated_Source\PSoC4/cyfitter_cfg.c **** 			{0x45u, 0x01u},
 416:Generated_Source\PSoC4/cyfitter_cfg.c **** 			{0x47u, 0x25u},
 417:Generated_Source\PSoC4/cyfitter_cfg.c **** 			{0x48u, 0x31u},
 418:Generated_Source\PSoC4/cyfitter_cfg.c **** 			{0x49u, 0xFFu},
 419:Generated_Source\PSoC4/cyfitter_cfg.c **** 			{0x4Au, 0xFFu},
 420:Generated_Source\PSoC4/cyfitter_cfg.c **** 			{0x4Bu, 0xFFu},
 421:Generated_Source\PSoC4/cyfitter_cfg.c **** 			{0x4Du, 0xA0u},
 422:Generated_Source\PSoC4/cyfitter_cfg.c **** 			{0x58u, 0x04u},
 423:Generated_Source\PSoC4/cyfitter_cfg.c **** 			{0x59u, 0x04u},
 424:Generated_Source\PSoC4/cyfitter_cfg.c **** 			{0x5Au, 0x04u},
ARM GAS  C:\Users\casey\AppData\Local\Temp\ccidVM6n.s 			page 16


 425:Generated_Source\PSoC4/cyfitter_cfg.c **** 			{0x5Bu, 0x04u},
 426:Generated_Source\PSoC4/cyfitter_cfg.c **** 			{0x5Cu, 0x09u},
 427:Generated_Source\PSoC4/cyfitter_cfg.c **** 			{0x5Du, 0x09u},
 428:Generated_Source\PSoC4/cyfitter_cfg.c **** 			{0x5Fu, 0x01u},
 429:Generated_Source\PSoC4/cyfitter_cfg.c **** 			{0x60u, 0x40u},
 430:Generated_Source\PSoC4/cyfitter_cfg.c **** 			{0x61u, 0x40u},
 431:Generated_Source\PSoC4/cyfitter_cfg.c **** 			{0x62u, 0xC0u},
 432:Generated_Source\PSoC4/cyfitter_cfg.c **** 			{0x64u, 0xC0u},
 433:Generated_Source\PSoC4/cyfitter_cfg.c **** 			{0x66u, 0xC0u},
 434:Generated_Source\PSoC4/cyfitter_cfg.c **** 			{0x80u, 0x0Cu},
 435:Generated_Source\PSoC4/cyfitter_cfg.c **** 			{0x84u, 0x6Du},
 436:Generated_Source\PSoC4/cyfitter_cfg.c **** 			{0x85u, 0x57u},
 437:Generated_Source\PSoC4/cyfitter_cfg.c **** 			{0x86u, 0x12u},
 438:Generated_Source\PSoC4/cyfitter_cfg.c **** 			{0x87u, 0x08u},
 439:Generated_Source\PSoC4/cyfitter_cfg.c **** 			{0x89u, 0xA0u},
 440:Generated_Source\PSoC4/cyfitter_cfg.c **** 			{0x8Au, 0x49u},
 441:Generated_Source\PSoC4/cyfitter_cfg.c **** 			{0x8Bu, 0x5Fu},
 442:Generated_Source\PSoC4/cyfitter_cfg.c **** 			{0x8Du, 0x01u},
 443:Generated_Source\PSoC4/cyfitter_cfg.c **** 			{0x91u, 0x02u},
 444:Generated_Source\PSoC4/cyfitter_cfg.c **** 			{0x92u, 0x89u},
 445:Generated_Source\PSoC4/cyfitter_cfg.c **** 			{0x93u, 0x20u},
 446:Generated_Source\PSoC4/cyfitter_cfg.c **** 			{0x94u, 0xA4u},
 447:Generated_Source\PSoC4/cyfitter_cfg.c **** 			{0x95u, 0x04u},
 448:Generated_Source\PSoC4/cyfitter_cfg.c **** 			{0x96u, 0x53u},
 449:Generated_Source\PSoC4/cyfitter_cfg.c **** 			{0x97u, 0x90u},
 450:Generated_Source\PSoC4/cyfitter_cfg.c **** 			{0x9Bu, 0x08u},
 451:Generated_Source\PSoC4/cyfitter_cfg.c **** 			{0x9Eu, 0x49u},
 452:Generated_Source\PSoC4/cyfitter_cfg.c **** 			{0xA2u, 0x49u},
 453:Generated_Source\PSoC4/cyfitter_cfg.c **** 			{0xA4u, 0x02u},
 454:Generated_Source\PSoC4/cyfitter_cfg.c **** 			{0xA6u, 0x10u},
 455:Generated_Source\PSoC4/cyfitter_cfg.c **** 			{0xAEu, 0x0Cu},
 456:Generated_Source\PSoC4/cyfitter_cfg.c **** 			{0xAFu, 0x57u},
 457:Generated_Source\PSoC4/cyfitter_cfg.c **** 			{0xB0u, 0xC0u},
 458:Generated_Source\PSoC4/cyfitter_cfg.c **** 			{0xB2u, 0x38u},
 459:Generated_Source\PSoC4/cyfitter_cfg.c **** 			{0xB3u, 0x0Fu},
 460:Generated_Source\PSoC4/cyfitter_cfg.c **** 			{0xB4u, 0x07u},
 461:Generated_Source\PSoC4/cyfitter_cfg.c **** 			{0xB5u, 0xC0u},
 462:Generated_Source\PSoC4/cyfitter_cfg.c **** 			{0xB7u, 0x30u},
 463:Generated_Source\PSoC4/cyfitter_cfg.c **** 			{0xB8u, 0x08u},
 464:Generated_Source\PSoC4/cyfitter_cfg.c **** 			{0xBAu, 0x02u},
 465:Generated_Source\PSoC4/cyfitter_cfg.c **** 			{0xBBu, 0xA0u},
 466:Generated_Source\PSoC4/cyfitter_cfg.c **** 			{0xC0u, 0x26u},
 467:Generated_Source\PSoC4/cyfitter_cfg.c **** 			{0xC5u, 0x0Bu},
 468:Generated_Source\PSoC4/cyfitter_cfg.c **** 			{0xC6u, 0x0Cu},
 469:Generated_Source\PSoC4/cyfitter_cfg.c **** 			{0xC7u, 0x0Eu},
 470:Generated_Source\PSoC4/cyfitter_cfg.c **** 			{0xC8u, 0x15u},
 471:Generated_Source\PSoC4/cyfitter_cfg.c **** 			{0xC9u, 0xFFu},
 472:Generated_Source\PSoC4/cyfitter_cfg.c **** 			{0xCAu, 0xFFu},
 473:Generated_Source\PSoC4/cyfitter_cfg.c **** 			{0xCBu, 0xFFu},
 474:Generated_Source\PSoC4/cyfitter_cfg.c **** 			{0xD8u, 0x04u},
 475:Generated_Source\PSoC4/cyfitter_cfg.c **** 			{0xD9u, 0x04u},
 476:Generated_Source\PSoC4/cyfitter_cfg.c **** 			{0xDAu, 0x04u},
 477:Generated_Source\PSoC4/cyfitter_cfg.c **** 			{0xDBu, 0x04u},
 478:Generated_Source\PSoC4/cyfitter_cfg.c **** 			{0xDCu, 0x99u},
 479:Generated_Source\PSoC4/cyfitter_cfg.c **** 			{0xDDu, 0x09u},
 480:Generated_Source\PSoC4/cyfitter_cfg.c **** 			{0xDFu, 0x01u},
 481:Generated_Source\PSoC4/cyfitter_cfg.c **** 			{0xE2u, 0xC0u},
ARM GAS  C:\Users\casey\AppData\Local\Temp\ccidVM6n.s 			page 17


 482:Generated_Source\PSoC4/cyfitter_cfg.c **** 			{0xE4u, 0x40u},
 483:Generated_Source\PSoC4/cyfitter_cfg.c **** 			{0xE5u, 0x01u},
 484:Generated_Source\PSoC4/cyfitter_cfg.c **** 			{0x00u, 0x64u},
 485:Generated_Source\PSoC4/cyfitter_cfg.c **** 			{0x02u, 0x40u},
 486:Generated_Source\PSoC4/cyfitter_cfg.c **** 			{0x04u, 0x04u},
 487:Generated_Source\PSoC4/cyfitter_cfg.c **** 			{0x06u, 0x40u},
 488:Generated_Source\PSoC4/cyfitter_cfg.c **** 			{0x07u, 0x84u},
 489:Generated_Source\PSoC4/cyfitter_cfg.c **** 			{0x0Au, 0x28u},
 490:Generated_Source\PSoC4/cyfitter_cfg.c **** 			{0x0Du, 0x82u},
 491:Generated_Source\PSoC4/cyfitter_cfg.c **** 			{0x0Eu, 0x20u},
 492:Generated_Source\PSoC4/cyfitter_cfg.c **** 			{0x10u, 0x20u},
 493:Generated_Source\PSoC4/cyfitter_cfg.c **** 			{0x11u, 0x40u},
 494:Generated_Source\PSoC4/cyfitter_cfg.c **** 			{0x12u, 0x08u},
 495:Generated_Source\PSoC4/cyfitter_cfg.c **** 			{0x15u, 0x42u},
 496:Generated_Source\PSoC4/cyfitter_cfg.c **** 			{0x17u, 0x08u},
 497:Generated_Source\PSoC4/cyfitter_cfg.c **** 			{0x18u, 0x42u},
 498:Generated_Source\PSoC4/cyfitter_cfg.c **** 			{0x1Au, 0x08u},
 499:Generated_Source\PSoC4/cyfitter_cfg.c **** 			{0x1Bu, 0x44u},
 500:Generated_Source\PSoC4/cyfitter_cfg.c **** 			{0x1Cu, 0xA4u},
 501:Generated_Source\PSoC4/cyfitter_cfg.c **** 			{0x1Du, 0x02u},
 502:Generated_Source\PSoC4/cyfitter_cfg.c **** 			{0x1Eu, 0x20u},
 503:Generated_Source\PSoC4/cyfitter_cfg.c **** 			{0x21u, 0x08u},
 504:Generated_Source\PSoC4/cyfitter_cfg.c **** 			{0x22u, 0x21u},
 505:Generated_Source\PSoC4/cyfitter_cfg.c **** 			{0x25u, 0x80u},
 506:Generated_Source\PSoC4/cyfitter_cfg.c **** 			{0x27u, 0x26u},
 507:Generated_Source\PSoC4/cyfitter_cfg.c **** 			{0x29u, 0x40u},
 508:Generated_Source\PSoC4/cyfitter_cfg.c **** 			{0x2Bu, 0x44u},
 509:Generated_Source\PSoC4/cyfitter_cfg.c **** 			{0x2Cu, 0x02u},
 510:Generated_Source\PSoC4/cyfitter_cfg.c **** 			{0x30u, 0x08u},
 511:Generated_Source\PSoC4/cyfitter_cfg.c **** 			{0x31u, 0x20u},
 512:Generated_Source\PSoC4/cyfitter_cfg.c **** 			{0x33u, 0x41u},
 513:Generated_Source\PSoC4/cyfitter_cfg.c **** 			{0x37u, 0x26u},
 514:Generated_Source\PSoC4/cyfitter_cfg.c **** 			{0x39u, 0x45u},
 515:Generated_Source\PSoC4/cyfitter_cfg.c **** 			{0x3Bu, 0x80u},
 516:Generated_Source\PSoC4/cyfitter_cfg.c **** 			{0x3Cu, 0xA4u},
 517:Generated_Source\PSoC4/cyfitter_cfg.c **** 			{0x40u, 0x40u},
 518:Generated_Source\PSoC4/cyfitter_cfg.c **** 			{0x42u, 0x10u},
 519:Generated_Source\PSoC4/cyfitter_cfg.c **** 			{0x43u, 0x08u},
 520:Generated_Source\PSoC4/cyfitter_cfg.c **** 			{0x47u, 0x20u},
 521:Generated_Source\PSoC4/cyfitter_cfg.c **** 			{0x48u, 0x22u},
 522:Generated_Source\PSoC4/cyfitter_cfg.c **** 			{0x4Eu, 0x14u},
 523:Generated_Source\PSoC4/cyfitter_cfg.c **** 			{0x50u, 0x02u},
 524:Generated_Source\PSoC4/cyfitter_cfg.c **** 			{0x51u, 0x01u},
 525:Generated_Source\PSoC4/cyfitter_cfg.c **** 			{0x52u, 0x08u},
 526:Generated_Source\PSoC4/cyfitter_cfg.c **** 			{0x56u, 0x40u},
 527:Generated_Source\PSoC4/cyfitter_cfg.c **** 			{0x57u, 0x08u},
 528:Generated_Source\PSoC4/cyfitter_cfg.c **** 			{0x5Eu, 0x10u},
 529:Generated_Source\PSoC4/cyfitter_cfg.c **** 			{0x5Fu, 0x80u},
 530:Generated_Source\PSoC4/cyfitter_cfg.c **** 			{0x64u, 0x20u},
 531:Generated_Source\PSoC4/cyfitter_cfg.c **** 			{0x67u, 0x80u},
 532:Generated_Source\PSoC4/cyfitter_cfg.c **** 			{0x68u, 0x08u},
 533:Generated_Source\PSoC4/cyfitter_cfg.c **** 			{0x69u, 0x05u},
 534:Generated_Source\PSoC4/cyfitter_cfg.c **** 			{0x6Bu, 0x01u},
 535:Generated_Source\PSoC4/cyfitter_cfg.c **** 			{0x6Du, 0x40u},
 536:Generated_Source\PSoC4/cyfitter_cfg.c **** 			{0x6Fu, 0x40u},
 537:Generated_Source\PSoC4/cyfitter_cfg.c **** 			{0x75u, 0x40u},
 538:Generated_Source\PSoC4/cyfitter_cfg.c **** 			{0x77u, 0x08u},
ARM GAS  C:\Users\casey\AppData\Local\Temp\ccidVM6n.s 			page 18


 539:Generated_Source\PSoC4/cyfitter_cfg.c **** 			{0x82u, 0x20u},
 540:Generated_Source\PSoC4/cyfitter_cfg.c **** 			{0x85u, 0x08u},
 541:Generated_Source\PSoC4/cyfitter_cfg.c **** 			{0x86u, 0x01u},
 542:Generated_Source\PSoC4/cyfitter_cfg.c **** 			{0xC0u, 0x7Fu},
 543:Generated_Source\PSoC4/cyfitter_cfg.c **** 			{0xC2u, 0xB6u},
 544:Generated_Source\PSoC4/cyfitter_cfg.c **** 			{0xC4u, 0xB7u},
 545:Generated_Source\PSoC4/cyfitter_cfg.c **** 			{0xCAu, 0x1Du},
 546:Generated_Source\PSoC4/cyfitter_cfg.c **** 			{0xCCu, 0xEFu},
 547:Generated_Source\PSoC4/cyfitter_cfg.c **** 			{0xCEu, 0x7Bu},
 548:Generated_Source\PSoC4/cyfitter_cfg.c **** 			{0xD0u, 0x21u},
 549:Generated_Source\PSoC4/cyfitter_cfg.c **** 			{0xD2u, 0x28u},
 550:Generated_Source\PSoC4/cyfitter_cfg.c **** 			{0xD6u, 0x30u},
 551:Generated_Source\PSoC4/cyfitter_cfg.c **** 			{0xD8u, 0xC0u},
 552:Generated_Source\PSoC4/cyfitter_cfg.c **** 			{0xE4u, 0x02u},
 553:Generated_Source\PSoC4/cyfitter_cfg.c **** 			{0x8Cu, 0x04u},
 554:Generated_Source\PSoC4/cyfitter_cfg.c **** 			{0xA8u, 0x21u},
 555:Generated_Source\PSoC4/cyfitter_cfg.c **** 			{0xB1u, 0x20u},
 556:Generated_Source\PSoC4/cyfitter_cfg.c **** 			{0xB2u, 0x40u},
 557:Generated_Source\PSoC4/cyfitter_cfg.c **** 			{0x01u, 0x02u},
 558:Generated_Source\PSoC4/cyfitter_cfg.c **** 			{0x04u, 0x02u},
 559:Generated_Source\PSoC4/cyfitter_cfg.c **** 			{0x05u, 0x01u},
 560:Generated_Source\PSoC4/cyfitter_cfg.c **** 			{0x08u, 0x01u},
 561:Generated_Source\PSoC4/cyfitter_cfg.c **** 			{0x31u, 0x01u},
 562:Generated_Source\PSoC4/cyfitter_cfg.c **** 			{0x32u, 0x02u},
 563:Generated_Source\PSoC4/cyfitter_cfg.c **** 			{0x35u, 0x02u},
 564:Generated_Source\PSoC4/cyfitter_cfg.c **** 			{0x36u, 0x01u},
 565:Generated_Source\PSoC4/cyfitter_cfg.c **** 			{0x3Eu, 0x44u},
 566:Generated_Source\PSoC4/cyfitter_cfg.c **** 			{0x3Fu, 0x11u},
 567:Generated_Source\PSoC4/cyfitter_cfg.c **** 			{0x40u, 0x51u},
 568:Generated_Source\PSoC4/cyfitter_cfg.c **** 			{0x49u, 0xFFu},
 569:Generated_Source\PSoC4/cyfitter_cfg.c **** 			{0x4Au, 0xFFu},
 570:Generated_Source\PSoC4/cyfitter_cfg.c **** 			{0x4Bu, 0xFFu},
 571:Generated_Source\PSoC4/cyfitter_cfg.c **** 			{0x4Fu, 0x01u},
 572:Generated_Source\PSoC4/cyfitter_cfg.c **** 			{0x50u, 0x18u},
 573:Generated_Source\PSoC4/cyfitter_cfg.c **** 			{0x58u, 0x04u},
 574:Generated_Source\PSoC4/cyfitter_cfg.c **** 			{0x59u, 0x04u},
 575:Generated_Source\PSoC4/cyfitter_cfg.c **** 			{0x5Au, 0x04u},
 576:Generated_Source\PSoC4/cyfitter_cfg.c **** 			{0x5Bu, 0x04u},
 577:Generated_Source\PSoC4/cyfitter_cfg.c **** 			{0x5Du, 0x01u},
 578:Generated_Source\PSoC4/cyfitter_cfg.c **** 			{0x5Fu, 0x01u},
 579:Generated_Source\PSoC4/cyfitter_cfg.c **** 			{0x60u, 0x40u},
 580:Generated_Source\PSoC4/cyfitter_cfg.c **** 			{0x62u, 0x40u},
 581:Generated_Source\PSoC4/cyfitter_cfg.c **** 			{0x64u, 0x40u},
 582:Generated_Source\PSoC4/cyfitter_cfg.c **** 			{0x65u, 0x40u},
 583:Generated_Source\PSoC4/cyfitter_cfg.c **** 			{0x66u, 0x80u},
 584:Generated_Source\PSoC4/cyfitter_cfg.c **** 			{0x68u, 0x80u},
 585:Generated_Source\PSoC4/cyfitter_cfg.c **** 			{0x6Au, 0x80u},
 586:Generated_Source\PSoC4/cyfitter_cfg.c **** 			{0x6Cu, 0x80u},
 587:Generated_Source\PSoC4/cyfitter_cfg.c **** 			{0x6Eu, 0x80u},
 588:Generated_Source\PSoC4/cyfitter_cfg.c **** 			{0x95u, 0x01u},
 589:Generated_Source\PSoC4/cyfitter_cfg.c **** 			{0xA5u, 0x02u},
 590:Generated_Source\PSoC4/cyfitter_cfg.c **** 			{0xB1u, 0x01u},
 591:Generated_Source\PSoC4/cyfitter_cfg.c **** 			{0xB3u, 0x02u},
 592:Generated_Source\PSoC4/cyfitter_cfg.c **** 			{0xC0u, 0x41u},
 593:Generated_Source\PSoC4/cyfitter_cfg.c **** 			{0xC9u, 0xFFu},
 594:Generated_Source\PSoC4/cyfitter_cfg.c **** 			{0xCAu, 0xFFu},
 595:Generated_Source\PSoC4/cyfitter_cfg.c **** 			{0xCBu, 0xFFu},
ARM GAS  C:\Users\casey\AppData\Local\Temp\ccidVM6n.s 			page 19


 596:Generated_Source\PSoC4/cyfitter_cfg.c **** 			{0xCDu, 0x83u},
 597:Generated_Source\PSoC4/cyfitter_cfg.c **** 			{0xCEu, 0x03u},
 598:Generated_Source\PSoC4/cyfitter_cfg.c **** 			{0xCFu, 0x01u},
 599:Generated_Source\PSoC4/cyfitter_cfg.c **** 			{0xD0u, 0x18u},
 600:Generated_Source\PSoC4/cyfitter_cfg.c **** 			{0xD2u, 0x80u},
 601:Generated_Source\PSoC4/cyfitter_cfg.c **** 			{0xD6u, 0x04u},
 602:Generated_Source\PSoC4/cyfitter_cfg.c **** 			{0xD9u, 0x04u},
 603:Generated_Source\PSoC4/cyfitter_cfg.c **** 			{0xDAu, 0x04u},
 604:Generated_Source\PSoC4/cyfitter_cfg.c **** 			{0xDBu, 0x04u},
 605:Generated_Source\PSoC4/cyfitter_cfg.c **** 			{0xDCu, 0x30u},
 606:Generated_Source\PSoC4/cyfitter_cfg.c **** 			{0xDDu, 0x11u},
 607:Generated_Source\PSoC4/cyfitter_cfg.c **** 			{0xDFu, 0x01u},
 608:Generated_Source\PSoC4/cyfitter_cfg.c **** 			{0xE0u, 0x40u},
 609:Generated_Source\PSoC4/cyfitter_cfg.c **** 			{0xE2u, 0x40u},
 610:Generated_Source\PSoC4/cyfitter_cfg.c **** 			{0xE4u, 0x40u},
 611:Generated_Source\PSoC4/cyfitter_cfg.c **** 			{0xE5u, 0x40u},
 612:Generated_Source\PSoC4/cyfitter_cfg.c **** 			{0xE6u, 0x80u},
 613:Generated_Source\PSoC4/cyfitter_cfg.c **** 			{0xE8u, 0x80u},
 614:Generated_Source\PSoC4/cyfitter_cfg.c **** 			{0xEAu, 0x80u},
 615:Generated_Source\PSoC4/cyfitter_cfg.c **** 			{0xECu, 0x80u},
 616:Generated_Source\PSoC4/cyfitter_cfg.c **** 			{0xEEu, 0x80u},
 617:Generated_Source\PSoC4/cyfitter_cfg.c **** 			{0x01u, 0x20u},
 618:Generated_Source\PSoC4/cyfitter_cfg.c **** 			{0x02u, 0x20u},
 619:Generated_Source\PSoC4/cyfitter_cfg.c **** 			{0x19u, 0x44u},
 620:Generated_Source\PSoC4/cyfitter_cfg.c **** 			{0x22u, 0x11u},
 621:Generated_Source\PSoC4/cyfitter_cfg.c **** 			{0x24u, 0x40u},
 622:Generated_Source\PSoC4/cyfitter_cfg.c **** 			{0x27u, 0x20u},
 623:Generated_Source\PSoC4/cyfitter_cfg.c **** 			{0x2Fu, 0x10u},
 624:Generated_Source\PSoC4/cyfitter_cfg.c **** 			{0x36u, 0x08u},
 625:Generated_Source\PSoC4/cyfitter_cfg.c **** 			{0x38u, 0x06u},
 626:Generated_Source\PSoC4/cyfitter_cfg.c **** 			{0x42u, 0x02u},
 627:Generated_Source\PSoC4/cyfitter_cfg.c **** 			{0x46u, 0x42u},
 628:Generated_Source\PSoC4/cyfitter_cfg.c **** 			{0x48u, 0x01u},
 629:Generated_Source\PSoC4/cyfitter_cfg.c **** 			{0x59u, 0x44u},
 630:Generated_Source\PSoC4/cyfitter_cfg.c **** 			{0x5Au, 0x22u},
 631:Generated_Source\PSoC4/cyfitter_cfg.c **** 			{0x5Cu, 0x40u},
 632:Generated_Source\PSoC4/cyfitter_cfg.c **** 			{0x5Fu, 0x20u},
 633:Generated_Source\PSoC4/cyfitter_cfg.c **** 			{0x67u, 0x40u},
 634:Generated_Source\PSoC4/cyfitter_cfg.c **** 			{0x74u, 0x01u},
 635:Generated_Source\PSoC4/cyfitter_cfg.c **** 			{0x76u, 0x40u},
 636:Generated_Source\PSoC4/cyfitter_cfg.c **** 			{0x87u, 0x40u},
 637:Generated_Source\PSoC4/cyfitter_cfg.c **** 			{0x90u, 0x06u},
 638:Generated_Source\PSoC4/cyfitter_cfg.c **** 			{0x99u, 0x20u},
 639:Generated_Source\PSoC4/cyfitter_cfg.c **** 			{0xB1u, 0x20u},
 640:Generated_Source\PSoC4/cyfitter_cfg.c **** 			{0xB4u, 0x01u},
 641:Generated_Source\PSoC4/cyfitter_cfg.c **** 			{0xC0u, 0x06u},
 642:Generated_Source\PSoC4/cyfitter_cfg.c **** 			{0xCAu, 0x40u},
 643:Generated_Source\PSoC4/cyfitter_cfg.c **** 			{0xCCu, 0x40u},
 644:Generated_Source\PSoC4/cyfitter_cfg.c **** 			{0xCEu, 0x03u},
 645:Generated_Source\PSoC4/cyfitter_cfg.c **** 			{0xD0u, 0x98u},
 646:Generated_Source\PSoC4/cyfitter_cfg.c **** 			{0xD2u, 0x08u},
 647:Generated_Source\PSoC4/cyfitter_cfg.c **** 			{0xD6u, 0x3Fu},
 648:Generated_Source\PSoC4/cyfitter_cfg.c **** 			{0xD8u, 0x80u},
 649:Generated_Source\PSoC4/cyfitter_cfg.c **** 			{0x02u, 0x01u},
 650:Generated_Source\PSoC4/cyfitter_cfg.c **** 			{0x0Eu, 0x01u},
 651:Generated_Source\PSoC4/cyfitter_cfg.c **** 			{0x30u, 0x01u},
 652:Generated_Source\PSoC4/cyfitter_cfg.c **** 			{0x3Eu, 0x01u},
ARM GAS  C:\Users\casey\AppData\Local\Temp\ccidVM6n.s 			page 20


 653:Generated_Source\PSoC4/cyfitter_cfg.c **** 			{0x40u, 0x41u},
 654:Generated_Source\PSoC4/cyfitter_cfg.c **** 			{0x45u, 0xECu},
 655:Generated_Source\PSoC4/cyfitter_cfg.c **** 			{0x47u, 0x20u},
 656:Generated_Source\PSoC4/cyfitter_cfg.c **** 			{0x48u, 0x23u},
 657:Generated_Source\PSoC4/cyfitter_cfg.c **** 			{0x49u, 0xFFu},
 658:Generated_Source\PSoC4/cyfitter_cfg.c **** 			{0x4Au, 0xFFu},
 659:Generated_Source\PSoC4/cyfitter_cfg.c **** 			{0x4Bu, 0xFFu},
 660:Generated_Source\PSoC4/cyfitter_cfg.c **** 			{0x4Du, 0x83u},
 661:Generated_Source\PSoC4/cyfitter_cfg.c **** 			{0x4Eu, 0x03u},
 662:Generated_Source\PSoC4/cyfitter_cfg.c **** 			{0x4Fu, 0x01u},
 663:Generated_Source\PSoC4/cyfitter_cfg.c **** 			{0x50u, 0x18u},
 664:Generated_Source\PSoC4/cyfitter_cfg.c **** 			{0x54u, 0x01u},
 665:Generated_Source\PSoC4/cyfitter_cfg.c **** 			{0x56u, 0x04u},
 666:Generated_Source\PSoC4/cyfitter_cfg.c **** 			{0x58u, 0x04u},
 667:Generated_Source\PSoC4/cyfitter_cfg.c **** 			{0x5Au, 0x04u},
 668:Generated_Source\PSoC4/cyfitter_cfg.c **** 			{0x5Bu, 0x04u},
 669:Generated_Source\PSoC4/cyfitter_cfg.c **** 			{0x5Du, 0x11u},
 670:Generated_Source\PSoC4/cyfitter_cfg.c **** 			{0x5Fu, 0x01u},
 671:Generated_Source\PSoC4/cyfitter_cfg.c **** 			{0x60u, 0x40u},
 672:Generated_Source\PSoC4/cyfitter_cfg.c **** 			{0x62u, 0x40u},
 673:Generated_Source\PSoC4/cyfitter_cfg.c **** 			{0x64u, 0x40u},
 674:Generated_Source\PSoC4/cyfitter_cfg.c **** 			{0x65u, 0x40u},
 675:Generated_Source\PSoC4/cyfitter_cfg.c **** 			{0x66u, 0x80u},
 676:Generated_Source\PSoC4/cyfitter_cfg.c **** 			{0x68u, 0x80u},
 677:Generated_Source\PSoC4/cyfitter_cfg.c **** 			{0x6Au, 0x80u},
 678:Generated_Source\PSoC4/cyfitter_cfg.c **** 			{0x6Cu, 0x80u},
 679:Generated_Source\PSoC4/cyfitter_cfg.c **** 			{0x6Eu, 0x80u},
 680:Generated_Source\PSoC4/cyfitter_cfg.c **** 			{0x06u, 0x42u},
 681:Generated_Source\PSoC4/cyfitter_cfg.c **** 			{0x1Eu, 0x80u},
 682:Generated_Source\PSoC4/cyfitter_cfg.c **** 			{0x46u, 0x42u},
 683:Generated_Source\PSoC4/cyfitter_cfg.c **** 			{0x4Du, 0x04u},
 684:Generated_Source\PSoC4/cyfitter_cfg.c **** 			{0x4Fu, 0x01u},
 685:Generated_Source\PSoC4/cyfitter_cfg.c **** 			{0x56u, 0x02u},
 686:Generated_Source\PSoC4/cyfitter_cfg.c **** 			{0x5Du, 0x04u},
 687:Generated_Source\PSoC4/cyfitter_cfg.c **** 			{0x5Eu, 0x80u},
 688:Generated_Source\PSoC4/cyfitter_cfg.c **** 			{0x5Fu, 0x01u},
 689:Generated_Source\PSoC4/cyfitter_cfg.c **** 			{0x65u, 0x01u},
 690:Generated_Source\PSoC4/cyfitter_cfg.c **** 			{0x8Du, 0x01u},
 691:Generated_Source\PSoC4/cyfitter_cfg.c **** 			{0x9Au, 0x40u},
 692:Generated_Source\PSoC4/cyfitter_cfg.c **** 			{0x9Eu, 0x02u},
 693:Generated_Source\PSoC4/cyfitter_cfg.c **** 			{0xAFu, 0x10u},
 694:Generated_Source\PSoC4/cyfitter_cfg.c **** 			{0xB6u, 0x28u},
 695:Generated_Source\PSoC4/cyfitter_cfg.c **** 			{0xC0u, 0x90u},
 696:Generated_Source\PSoC4/cyfitter_cfg.c **** 			{0xD0u, 0x90u},
 697:Generated_Source\PSoC4/cyfitter_cfg.c **** 			{0xD6u, 0xD0u},
 698:Generated_Source\PSoC4/cyfitter_cfg.c **** 			{0xD8u, 0x80u},
 699:Generated_Source\PSoC4/cyfitter_cfg.c **** 			{0xE6u, 0x40u},
 700:Generated_Source\PSoC4/cyfitter_cfg.c **** 			{0xECu, 0x40u},
 701:Generated_Source\PSoC4/cyfitter_cfg.c **** 			{0x6Au, 0x80u},
 702:Generated_Source\PSoC4/cyfitter_cfg.c **** 			{0x6Fu, 0x81u},
 703:Generated_Source\PSoC4/cyfitter_cfg.c **** 			{0x73u, 0x02u},
 704:Generated_Source\PSoC4/cyfitter_cfg.c **** 			{0x74u, 0x02u},
 705:Generated_Source\PSoC4/cyfitter_cfg.c **** 			{0x7Bu, 0x01u},
 706:Generated_Source\PSoC4/cyfitter_cfg.c **** 			{0x82u, 0x40u},
 707:Generated_Source\PSoC4/cyfitter_cfg.c **** 			{0x87u, 0x01u},
 708:Generated_Source\PSoC4/cyfitter_cfg.c **** 			{0xDAu, 0xC0u},
 709:Generated_Source\PSoC4/cyfitter_cfg.c **** 			{0xDCu, 0xE0u},
ARM GAS  C:\Users\casey\AppData\Local\Temp\ccidVM6n.s 			page 21


 710:Generated_Source\PSoC4/cyfitter_cfg.c **** 			{0xDEu, 0x20u},
 711:Generated_Source\PSoC4/cyfitter_cfg.c **** 			{0xE2u, 0x40u},
 712:Generated_Source\PSoC4/cyfitter_cfg.c **** 			{0xE6u, 0x80u},
 713:Generated_Source\PSoC4/cyfitter_cfg.c **** 			{0x1Bu, 0x80u},
 714:Generated_Source\PSoC4/cyfitter_cfg.c **** 			{0x2Bu, 0x01u},
 715:Generated_Source\PSoC4/cyfitter_cfg.c **** 			{0x9Fu, 0x02u},
 716:Generated_Source\PSoC4/cyfitter_cfg.c **** 			{0xA4u, 0x02u},
 717:Generated_Source\PSoC4/cyfitter_cfg.c **** 			{0xA7u, 0x81u},
 718:Generated_Source\PSoC4/cyfitter_cfg.c **** 			{0xC6u, 0x40u},
 719:Generated_Source\PSoC4/cyfitter_cfg.c **** 			{0xCAu, 0x10u},
 720:Generated_Source\PSoC4/cyfitter_cfg.c **** 			{0x03u, 0x08u},
 721:Generated_Source\PSoC4/cyfitter_cfg.c **** 			{0x04u, 0x20u},
 722:Generated_Source\PSoC4/cyfitter_cfg.c **** 			{0x87u, 0x02u},
 723:Generated_Source\PSoC4/cyfitter_cfg.c **** 			{0x9Fu, 0x02u},
 724:Generated_Source\PSoC4/cyfitter_cfg.c **** 			{0xA4u, 0x02u},
 725:Generated_Source\PSoC4/cyfitter_cfg.c **** 			{0xC0u, 0xC0u},
 726:Generated_Source\PSoC4/cyfitter_cfg.c **** 			{0xE6u, 0x40u},
 727:Generated_Source\PSoC4/cyfitter_cfg.c **** 			{0x8Cu, 0x02u},
 728:Generated_Source\PSoC4/cyfitter_cfg.c **** 			{0xA4u, 0x02u},
 729:Generated_Source\PSoC4/cyfitter_cfg.c **** 			{0xAFu, 0x08u},
 730:Generated_Source\PSoC4/cyfitter_cfg.c **** 			{0xB4u, 0x10u},
 731:Generated_Source\PSoC4/cyfitter_cfg.c **** 			{0xECu, 0x40u},
 732:Generated_Source\PSoC4/cyfitter_cfg.c **** 			{0x5Fu, 0x02u},
 733:Generated_Source\PSoC4/cyfitter_cfg.c **** 			{0x87u, 0x02u},
 734:Generated_Source\PSoC4/cyfitter_cfg.c **** 			{0xD6u, 0x01u},
 735:Generated_Source\PSoC4/cyfitter_cfg.c **** 			{0x03u, 0x08u},
 736:Generated_Source\PSoC4/cyfitter_cfg.c **** 			{0x04u, 0x40u},
 737:Generated_Source\PSoC4/cyfitter_cfg.c **** 			{0x0Au, 0x80u},
 738:Generated_Source\PSoC4/cyfitter_cfg.c **** 			{0x0Fu, 0x80u},
 739:Generated_Source\PSoC4/cyfitter_cfg.c **** 			{0x8Fu, 0x40u},
 740:Generated_Source\PSoC4/cyfitter_cfg.c **** 			{0xC0u, 0x03u},
 741:Generated_Source\PSoC4/cyfitter_cfg.c **** 			{0xC2u, 0x0Cu},
 742:Generated_Source\PSoC4/cyfitter_cfg.c **** 			{0xE6u, 0x02u},
 743:Generated_Source\PSoC4/cyfitter_cfg.c **** 			{0x92u, 0x80u},
 744:Generated_Source\PSoC4/cyfitter_cfg.c **** 			{0xB3u, 0x08u},
 745:Generated_Source\PSoC4/cyfitter_cfg.c **** 			{0xB4u, 0x40u},
 746:Generated_Source\PSoC4/cyfitter_cfg.c **** 			{0xEAu, 0x06u},
 747:Generated_Source\PSoC4/cyfitter_cfg.c **** 			{0xB6u, 0x40u},
 748:Generated_Source\PSoC4/cyfitter_cfg.c **** 			{0xEAu, 0x08u},
 749:Generated_Source\PSoC4/cyfitter_cfg.c **** 			{0x11u, 0x01u},
 750:Generated_Source\PSoC4/cyfitter_cfg.c **** 			{0x12u, 0x0Au},
 751:Generated_Source\PSoC4/cyfitter_cfg.c **** 		};
 752:Generated_Source\PSoC4/cyfitter_cfg.c **** 
 753:Generated_Source\PSoC4/cyfitter_cfg.c **** 
 754:Generated_Source\PSoC4/cyfitter_cfg.c **** 
 755:Generated_Source\PSoC4/cyfitter_cfg.c **** 		CYPACKED typedef struct {
 756:Generated_Source\PSoC4/cyfitter_cfg.c **** 			void CYFAR *address;
 757:Generated_Source\PSoC4/cyfitter_cfg.c **** 			uint16 size;
 758:Generated_Source\PSoC4/cyfitter_cfg.c **** 		} CYPACKED_ATTR cfg_memset_t;
 759:Generated_Source\PSoC4/cyfitter_cfg.c **** 
 760:Generated_Source\PSoC4/cyfitter_cfg.c **** 		static const cfg_memset_t CYCODE cfg_memset_list[] = {
 761:Generated_Source\PSoC4/cyfitter_cfg.c **** 			/* address, size */
 762:Generated_Source\PSoC4/cyfitter_cfg.c **** 			{(void CYFAR *)(CYDEV_UDB_P0_U0_BASE), 2048u},
 763:Generated_Source\PSoC4/cyfitter_cfg.c **** 			{(void CYFAR *)(CYDEV_UDB_DSI0_BASE), 2048u},
 764:Generated_Source\PSoC4/cyfitter_cfg.c **** 		};
 765:Generated_Source\PSoC4/cyfitter_cfg.c **** 
 766:Generated_Source\PSoC4/cyfitter_cfg.c **** 		uint8 CYDATA i;
ARM GAS  C:\Users\casey\AppData\Local\Temp\ccidVM6n.s 			page 22


 767:Generated_Source\PSoC4/cyfitter_cfg.c **** 
 768:Generated_Source\PSoC4/cyfitter_cfg.c **** 		/* Zero out critical memory blocks before beginning configuration */
 769:Generated_Source\PSoC4/cyfitter_cfg.c **** 		for (i = 0u; i < (sizeof(cfg_memset_list)/sizeof(cfg_memset_list[0])); i++)
 418              		.loc 1 769 0
 419 012a 0024     		movs	r4, #0
 420 012c 0FE0     		b	.L19
 421              	.LVL25:
 422              	.L20:
 423              	.LBB4:
 770:Generated_Source\PSoC4/cyfitter_cfg.c **** 		{
 771:Generated_Source\PSoC4/cyfitter_cfg.c **** 			const cfg_memset_t CYCODE * CYDATA ms = &cfg_memset_list[i];
 772:Generated_Source\PSoC4/cyfitter_cfg.c **** 			CYMEMZERO(ms->address, (size_t)(uint32)(ms->size));
 424              		.loc 1 772 0 discriminator 3
 425 012e 4448     		ldr	r0, .L21+4
 426 0130 6200     		lsls	r2, r4, #1
 427 0132 1319     		adds	r3, r2, r4
 428 0134 5900     		lsls	r1, r3, #1
 429 0136 0B00     		movs	r3, r1
 430 0138 4118     		adds	r1, r0, r1
 431 013a 8988     		ldrh	r1, [r1, #4]
 432 013c 1A5A     		ldrh	r2, [r3, r0]
 433 013e C318     		adds	r3, r0, r3
 434 0140 5888     		ldrh	r0, [r3, #2]
 435 0142 0004     		lsls	r0, r0, #16
 436 0144 1043     		orrs	r0, r2
 437 0146 FFF7FEFF 		bl	CYMEMZERO
 438              	.LVL26:
 439              	.LBE4:
 769:Generated_Source\PSoC4/cyfitter_cfg.c **** 		{
 440              		.loc 1 769 0 discriminator 3
 441 014a 0134     		adds	r4, r4, #1
 442              	.LVL27:
 443 014c E4B2     		uxtb	r4, r4
 444              	.LVL28:
 445              	.L19:
 769:Generated_Source\PSoC4/cyfitter_cfg.c **** 		{
 446              		.loc 1 769 0 is_stmt 0 discriminator 1
 447 014e 012C     		cmp	r4, #1
 448 0150 EDD9     		bls	.L20
 773:Generated_Source\PSoC4/cyfitter_cfg.c **** 		}
 774:Generated_Source\PSoC4/cyfitter_cfg.c **** 
 775:Generated_Source\PSoC4/cyfitter_cfg.c **** 		cfg_write_bytes32(cy_cfg_addr_table, cy_cfg_data_table);
 449              		.loc 1 775 0 is_stmt 1
 450 0152 3B49     		ldr	r1, .L21+4
 451 0154 0C31     		adds	r1, r1, #12
 452 0156 3B48     		ldr	r0, .L21+8
 453 0158 7830     		adds	r0, r0, #120
 454 015a FFF7FEFF 		bl	cfg_write_bytes32
 455              	.LVL29:
 776:Generated_Source\PSoC4/cyfitter_cfg.c **** 
 777:Generated_Source\PSoC4/cyfitter_cfg.c **** 		/* Perform normal device configuration. Order is not critical for these items. */
 778:Generated_Source\PSoC4/cyfitter_cfg.c **** 		CY_SET_REG16((void *)(CYREG_UDB_BCTL0_DRV), 0x0A00u);
 456              		.loc 1 778 0
 457 015e A022     		movs	r2, #160
 458 0160 1201     		lsls	r2, r2, #4
 459 0162 394B     		ldr	r3, .L21+12
 460 0164 1A80     		strh	r2, [r3]
ARM GAS  C:\Users\casey\AppData\Local\Temp\ccidVM6n.s 			page 23


 779:Generated_Source\PSoC4/cyfitter_cfg.c **** 		CY_SET_REG8((void *)(CYREG_UDB_BCTL0_DRV + 0x2u), 0x01u);
 461              		.loc 1 779 0
 462 0166 0122     		movs	r2, #1
 463 0168 384B     		ldr	r3, .L21+16
 464 016a 1A70     		strb	r2, [r3]
 780:Generated_Source\PSoC4/cyfitter_cfg.c **** 
 781:Generated_Source\PSoC4/cyfitter_cfg.c **** 		/* HSIOM Starting address: CYDEV_HSIOM_BASE */
 782:Generated_Source\PSoC4/cyfitter_cfg.c **** 		CY_SET_REG32((void *)(CYDEV_HSIOM_BASE), 0x38000000u);
 465              		.loc 1 782 0
 466 016c E022     		movs	r2, #224
 467 016e 9205     		lsls	r2, r2, #22
 468 0170 374B     		ldr	r3, .L21+20
 469 0172 1A60     		str	r2, [r3]
 783:Generated_Source\PSoC4/cyfitter_cfg.c **** 		CY_SET_REG32((void *)(CYREG_HSIOM_PORT_SEL3), 0x0000EE99u);
 470              		.loc 1 783 0
 471 0174 374A     		ldr	r2, .L21+24
 472 0176 384B     		ldr	r3, .L21+28
 473 0178 1A60     		str	r2, [r3]
 784:Generated_Source\PSoC4/cyfitter_cfg.c **** 		CY_SET_REG32((void *)(CYREG_HSIOM_PORT_SEL4), 0x000000AAu);
 474              		.loc 1 784 0
 475 017a AA22     		movs	r2, #170
 476 017c 374B     		ldr	r3, .L21+32
 477 017e 1A60     		str	r2, [r3]
 785:Generated_Source\PSoC4/cyfitter_cfg.c **** 		CY_SET_REG32((void *)(CYREG_HSIOM_PORT_SEL5), 0x00000808u);
 478              		.loc 1 785 0
 479 0180 374A     		ldr	r2, .L21+36
 480 0182 384B     		ldr	r3, .L21+40
 481 0184 1A60     		str	r2, [r3]
 786:Generated_Source\PSoC4/cyfitter_cfg.c **** 
 787:Generated_Source\PSoC4/cyfitter_cfg.c **** 		/* UDB_PA_0 Starting address: CYDEV_UDB_PA0_BASE */
 788:Generated_Source\PSoC4/cyfitter_cfg.c **** 		CY_SET_REG32((void *)(CYDEV_UDB_PA0_BASE), 0x00990000u);
 482              		.loc 1 788 0
 483 0186 9923     		movs	r3, #153
 484 0188 1B04     		lsls	r3, r3, #16
 485 018a 374A     		ldr	r2, .L21+44
 486 018c 1360     		str	r3, [r2]
 789:Generated_Source\PSoC4/cyfitter_cfg.c **** 
 790:Generated_Source\PSoC4/cyfitter_cfg.c **** 		/* UDB_PA_2 Starting address: CYDEV_UDB_PA2_BASE */
 791:Generated_Source\PSoC4/cyfitter_cfg.c **** 		CY_SET_REG32((void *)(CYDEV_UDB_PA2_BASE), 0x00990000u);
 487              		.loc 1 791 0
 488 018e 374A     		ldr	r2, .L21+48
 489 0190 1360     		str	r3, [r2]
 792:Generated_Source\PSoC4/cyfitter_cfg.c **** 
 793:Generated_Source\PSoC4/cyfitter_cfg.c **** 		/* UDB_PA_4 Starting address: CYDEV_UDB_PA4_BASE */
 794:Generated_Source\PSoC4/cyfitter_cfg.c **** 		CY_SET_REG32((void *)(CYDEV_UDB_PA4_BASE), 0x00990000u);
 490              		.loc 1 794 0
 491 0192 374A     		ldr	r2, .L21+52
 492 0194 1360     		str	r3, [r2]
 795:Generated_Source\PSoC4/cyfitter_cfg.c **** 		CY_SET_REG32((void *)(CYREG_UDB_PA4_CFG8), 0x40000000u);
 493              		.loc 1 795 0
 494 0196 8021     		movs	r1, #128
 495 0198 C905     		lsls	r1, r1, #23
 496 019a 364A     		ldr	r2, .L21+56
 497 019c 1160     		str	r1, [r2]
 796:Generated_Source\PSoC4/cyfitter_cfg.c **** 
 797:Generated_Source\PSoC4/cyfitter_cfg.c **** 		/* UDB_PA_5 Starting address: CYDEV_UDB_PA5_BASE */
 798:Generated_Source\PSoC4/cyfitter_cfg.c **** 		CY_SET_REG32((void *)(CYDEV_UDB_PA5_BASE), 0x00990000u);
ARM GAS  C:\Users\casey\AppData\Local\Temp\ccidVM6n.s 			page 24


 498              		.loc 1 798 0
 499 019e 364A     		ldr	r2, .L21+60
 500 01a0 1360     		str	r3, [r2]
 799:Generated_Source\PSoC4/cyfitter_cfg.c **** 
 800:Generated_Source\PSoC4/cyfitter_cfg.c **** 		/* UDB_PA_7 Starting address: CYDEV_UDB_PA7_BASE */
 801:Generated_Source\PSoC4/cyfitter_cfg.c **** 		CY_SET_REG32((void *)(CYDEV_UDB_PA7_BASE), 0x00990000u);
 501              		.loc 1 801 0
 502 01a2 364A     		ldr	r2, .L21+64
 503 01a4 1360     		str	r3, [r2]
 802:Generated_Source\PSoC4/cyfitter_cfg.c **** 
 803:Generated_Source\PSoC4/cyfitter_cfg.c **** 		/* INT_SELECT Starting address: CYDEV_CPUSS_INT_SEL */
 804:Generated_Source\PSoC4/cyfitter_cfg.c **** 		CY_SET_REG32((void *)(CYREG_CPUSS_INT_SEL), 0x0000003Fu);
 504              		.loc 1 804 0
 505 01a6 3F22     		movs	r2, #63
 506 01a8 354B     		ldr	r3, .L21+68
 507 01aa 1A60     		str	r2, [r3]
 805:Generated_Source\PSoC4/cyfitter_cfg.c **** 
 806:Generated_Source\PSoC4/cyfitter_cfg.c **** 		/* INT_CONFIG Starting address: CYDEV_UDB_INT_CFG */
 807:Generated_Source\PSoC4/cyfitter_cfg.c **** 		CY_SET_REG32((void *)(CYREG_UDB_INT_CFG), 0x00000027u);
 508              		.loc 1 807 0
 509 01ac 183A     		subs	r2, r2, #24
 510 01ae 354B     		ldr	r3, .L21+72
 511 01b0 1A60     		str	r2, [r3]
 808:Generated_Source\PSoC4/cyfitter_cfg.c **** 
 809:Generated_Source\PSoC4/cyfitter_cfg.c **** 		/* Enable UDB array and digital routing */
 810:Generated_Source\PSoC4/cyfitter_cfg.c **** 		CY_SET_XTND_REG8((void *)CYREG_UDB_UDB_WAIT_CFG, (uint8)((CY_GET_XTND_REG8((void *)CYREG_UDB_UDB_
 512              		.loc 1 810 0
 513 01b2 3549     		ldr	r1, .L21+76
 514 01b4 0B78     		ldrb	r3, [r1]
 515 01b6 1532     		adds	r2, r2, #21
 516 01b8 9343     		bics	r3, r2
 517 01ba 1422     		movs	r2, #20
 518 01bc 1343     		orrs	r3, r2
 519 01be DBB2     		uxtb	r3, r3
 520 01c0 0B70     		strb	r3, [r1]
 811:Generated_Source\PSoC4/cyfitter_cfg.c **** 		CY_SET_XTND_REG8((void *)CYREG_UDB_UDB_BANK_CTL, (uint8)(CY_GET_XTND_REG8((void *)CYREG_UDB_UDB_B
 521              		.loc 1 811 0
 522 01c2 324A     		ldr	r2, .L21+80
 523 01c4 1178     		ldrb	r1, [r2]
 524 01c6 1623     		movs	r3, #22
 525 01c8 0B43     		orrs	r3, r1
 526 01ca DBB2     		uxtb	r3, r3
 527 01cc 1370     		strb	r3, [r2]
 528              	.LBE3:
 812:Generated_Source\PSoC4/cyfitter_cfg.c **** 	}
 813:Generated_Source\PSoC4/cyfitter_cfg.c **** 
 814:Generated_Source\PSoC4/cyfitter_cfg.c **** 	/* Perform second pass device configuration. These items must be configured in specific order afte
 815:Generated_Source\PSoC4/cyfitter_cfg.c **** 	/* IOPINS0_0 Starting address: CYDEV_GPIO_PRT0_BASE */
 816:Generated_Source\PSoC4/cyfitter_cfg.c **** 	CY_SET_REG32((void *)(CYDEV_GPIO_PRT0_BASE), 0x000000BCu);
 529              		.loc 1 816 0
 530 01ce BC22     		movs	r2, #188
 531 01d0 2F4B     		ldr	r3, .L21+84
 532 01d2 1A60     		str	r2, [r3]
 817:Generated_Source\PSoC4/cyfitter_cfg.c **** 	CY_SET_REG32((void *)(CYREG_GPIO_PRT0_PC), 0x00C52DB6u);
 533              		.loc 1 817 0
 534 01d4 2F4A     		ldr	r2, .L21+88
 535 01d6 304B     		ldr	r3, .L21+92
ARM GAS  C:\Users\casey\AppData\Local\Temp\ccidVM6n.s 			page 25


 536 01d8 1A60     		str	r2, [r3]
 818:Generated_Source\PSoC4/cyfitter_cfg.c **** 
 819:Generated_Source\PSoC4/cyfitter_cfg.c **** 	/* IOPINS0_12 Starting address: CYDEV_GPIO_PRT12_BASE */
 820:Generated_Source\PSoC4/cyfitter_cfg.c **** 	CY_SET_REG32((void *)(CYREG_GPIO_PRT12_PC), 0x00000008u);
 537              		.loc 1 820 0
 538 01da 0822     		movs	r2, #8
 539 01dc 2F4B     		ldr	r3, .L21+96
 540 01de 1A60     		str	r2, [r3]
 821:Generated_Source\PSoC4/cyfitter_cfg.c **** 	CY_SET_REG32((void *)(CYREG_GPIO_PRT12_INTR_CFG), 0x0000000Cu);
 541              		.loc 1 821 0
 542 01e0 0432     		adds	r2, r2, #4
 543 01e2 2F4B     		ldr	r3, .L21+100
 544 01e4 1A60     		str	r2, [r3]
 822:Generated_Source\PSoC4/cyfitter_cfg.c **** 
 823:Generated_Source\PSoC4/cyfitter_cfg.c **** 	/* IOPINS0_2 Starting address: CYDEV_GPIO_PRT2_BASE */
 824:Generated_Source\PSoC4/cyfitter_cfg.c **** 	CY_SET_REG32((void *)(CYDEV_GPIO_PRT2_BASE), 0x0000001Fu);
 545              		.loc 1 824 0
 546 01e6 1332     		adds	r2, r2, #19
 547 01e8 2E4B     		ldr	r3, .L21+104
 548 01ea 1A60     		str	r2, [r3]
 825:Generated_Source\PSoC4/cyfitter_cfg.c **** 	CY_SET_REG32((void *)(CYREG_GPIO_PRT2_PC), 0x00000492u);
 549              		.loc 1 825 0
 550 01ec 2E4A     		ldr	r2, .L21+108
 551 01ee 2F4B     		ldr	r3, .L21+112
 552 01f0 1A60     		str	r2, [r3]
 826:Generated_Source\PSoC4/cyfitter_cfg.c **** 	CY_SET_REG32((void *)(CYREG_GPIO_PRT2_PC2), 0x00000013u);
 553              		.loc 1 826 0
 554 01f2 1322     		movs	r2, #19
 555 01f4 2E4B     		ldr	r3, .L21+116
 556 01f6 1A60     		str	r2, [r3]
 827:Generated_Source\PSoC4/cyfitter_cfg.c **** 
 828:Generated_Source\PSoC4/cyfitter_cfg.c **** 	/* IOPINS0_3 Starting address: CYDEV_GPIO_PRT3_BASE */
 829:Generated_Source\PSoC4/cyfitter_cfg.c **** 	CY_SET_REG32((void *)(CYDEV_GPIO_PRT3_BASE), 0x00000002u);
 557              		.loc 1 829 0
 558 01f8 0223     		movs	r3, #2
 559 01fa 2E4A     		ldr	r2, .L21+120
 560 01fc 1360     		str	r3, [r2]
 830:Generated_Source\PSoC4/cyfitter_cfg.c **** 	CY_SET_REG32((void *)(CYREG_GPIO_PRT3_PC), 0x00000DB1u);
 561              		.loc 1 830 0
 562 01fe 2E49     		ldr	r1, .L21+124
 563 0200 2E4A     		ldr	r2, .L21+128
 564 0202 1160     		str	r1, [r2]
 831:Generated_Source\PSoC4/cyfitter_cfg.c **** 	CY_SET_REG32((void *)(CYREG_GPIO_PRT3_PC2), 0x00000002u);
 565              		.loc 1 831 0
 566 0204 2E4A     		ldr	r2, .L21+132
 567 0206 1360     		str	r3, [r2]
 832:Generated_Source\PSoC4/cyfitter_cfg.c **** 
 833:Generated_Source\PSoC4/cyfitter_cfg.c **** 	/* IOPINS0_4 Starting address: CYDEV_GPIO_PRT4_BASE */
 834:Generated_Source\PSoC4/cyfitter_cfg.c **** 	CY_SET_REG32((void *)(CYDEV_GPIO_PRT4_BASE), 0x0000003Eu);
 568              		.loc 1 834 0
 569 0208 3E22     		movs	r2, #62
 570 020a 2E4B     		ldr	r3, .L21+136
 571 020c 1A60     		str	r2, [r3]
 835:Generated_Source\PSoC4/cyfitter_cfg.c **** 	CY_SET_REG32((void *)(CYREG_GPIO_PRT4_PC), 0x000124B1u);
 572              		.loc 1 835 0
 573 020e 2E4A     		ldr	r2, .L21+140
 574 0210 2E4B     		ldr	r3, .L21+144
ARM GAS  C:\Users\casey\AppData\Local\Temp\ccidVM6n.s 			page 26


 575 0212 1A60     		str	r2, [r3]
 836:Generated_Source\PSoC4/cyfitter_cfg.c **** 
 837:Generated_Source\PSoC4/cyfitter_cfg.c **** 	/* IOPINS0_5 Starting address: CYDEV_GPIO_PRT5_BASE */
 838:Generated_Source\PSoC4/cyfitter_cfg.c **** 	CY_SET_REG32((void *)(CYDEV_GPIO_PRT5_BASE), 0x00000005u);
 576              		.loc 1 838 0
 577 0214 0522     		movs	r2, #5
 578 0216 2E4B     		ldr	r3, .L21+148
 579 0218 1A60     		str	r2, [r3]
 839:Generated_Source\PSoC4/cyfitter_cfg.c **** 	CY_SET_REG32((void *)(CYREG_GPIO_PRT5_PC), 0x00000DB6u);
 580              		.loc 1 839 0
 581 021a 2E4A     		ldr	r2, .L21+152
 582 021c 2E4B     		ldr	r3, .L21+156
 583 021e 1A60     		str	r2, [r3]
 840:Generated_Source\PSoC4/cyfitter_cfg.c **** 
 841:Generated_Source\PSoC4/cyfitter_cfg.c **** 	/* IOPINS0_6 Starting address: CYDEV_GPIO_PRT6_BASE */
 842:Generated_Source\PSoC4/cyfitter_cfg.c **** 	CY_SET_REG32((void *)(CYREG_GPIO_PRT6_PC), 0x00001000u);
 584              		.loc 1 842 0
 585 0220 8022     		movs	r2, #128
 586 0222 5201     		lsls	r2, r2, #5
 587 0224 2D4B     		ldr	r3, .L21+160
 588 0226 1A60     		str	r2, [r3]
 843:Generated_Source\PSoC4/cyfitter_cfg.c **** 	CY_SET_REG32((void *)(CYREG_GPIO_PRT6_INTR_CFG), 0x00000300u);
 589              		.loc 1 843 0
 590 0228 C022     		movs	r2, #192
 591 022a 9200     		lsls	r2, r2, #2
 592 022c 2C4B     		ldr	r3, .L21+164
 593 022e 1A60     		str	r2, [r3]
 844:Generated_Source\PSoC4/cyfitter_cfg.c **** 
 845:Generated_Source\PSoC4/cyfitter_cfg.c **** 
 846:Generated_Source\PSoC4/cyfitter_cfg.c **** 	/* Setup clocks based on selections from Clock DWR */
 847:Generated_Source\PSoC4/cyfitter_cfg.c **** 	ClockSetup();
 594              		.loc 1 847 0
 595 0230 FFF7E6FE 		bl	ClockSetup
 596              	.LVL30:
 848:Generated_Source\PSoC4/cyfitter_cfg.c **** 
 849:Generated_Source\PSoC4/cyfitter_cfg.c **** 	/* Perform basic analog initialization to defaults */
 850:Generated_Source\PSoC4/cyfitter_cfg.c **** 	AnalogSetDefault();
 597              		.loc 1 850 0
 598 0234 FFF7FEFF 		bl	AnalogSetDefault
 599              	.LVL31:
 851:Generated_Source\PSoC4/cyfitter_cfg.c **** 
 852:Generated_Source\PSoC4/cyfitter_cfg.c **** }
 600              		.loc 1 852 0
 601              		@ sp needed
 602              	.LVL32:
 603 0238 10BD     		pop	{r4, pc}
 604              	.L22:
 605 023a C046     		.align	2
 606              	.L21:
 607 023c 1C700F40 		.word	1074753564
 608 0240 00000000 		.word	.LANCHOR0
 609 0244 80020000 		.word	.LANCHOR1
 610 0248 00600F40 		.word	1074749440
 611 024c 02600F40 		.word	1074749442
 612 0250 00000240 		.word	1073872896
 613 0254 99EE0000 		.word	61081
 614 0258 00030240 		.word	1073873664
ARM GAS  C:\Users\casey\AppData\Local\Temp\ccidVM6n.s 			page 27


 615 025c 00040240 		.word	1073873920
 616 0260 08080000 		.word	2056
 617 0264 00050240 		.word	1073874176
 618 0268 00500F40 		.word	1074745344
 619 026c 20500F40 		.word	1074745376
 620 0270 40500F40 		.word	1074745408
 621 0274 48500F40 		.word	1074745416
 622 0278 50500F40 		.word	1074745424
 623 027c 70500F40 		.word	1074745456
 624 0280 20001040 		.word	1074790432
 625 0284 00800F40 		.word	1074757632
 626 0288 01700F40 		.word	1074753537
 627 028c 00700F40 		.word	1074753536
 628 0290 00000440 		.word	1074003968
 629 0294 B62DC500 		.word	12922294
 630 0298 08000440 		.word	1074003976
 631 029c 080C0440 		.word	1074007048
 632 02a0 0C0C0440 		.word	1074007052
 633 02a4 00020440 		.word	1074004480
 634 02a8 92040000 		.word	1170
 635 02ac 08020440 		.word	1074004488
 636 02b0 18020440 		.word	1074004504
 637 02b4 00030440 		.word	1074004736
 638 02b8 B10D0000 		.word	3505
 639 02bc 08030440 		.word	1074004744
 640 02c0 18030440 		.word	1074004760
 641 02c4 00040440 		.word	1074004992
 642 02c8 B1240100 		.word	74929
 643 02cc 08040440 		.word	1074005000
 644 02d0 00050440 		.word	1074005248
 645 02d4 B60D0000 		.word	3510
 646 02d8 08050440 		.word	1074005256
 647 02dc 08060440 		.word	1074005512
 648 02e0 0C060440 		.word	1074005516
 649              		.cfi_endproc
 650              	.LFE8:
 651              		.size	cyfitter_cfg, .-cyfitter_cfg
 652              		.section	.rodata
 653              		.align	2
 654              		.set	.LANCHOR0,. + 0
 655              		.set	.LANCHOR1,. + 640
 656              		.type	cfg_memset_list.4977, %object
 657              		.size	cfg_memset_list.4977, 12
 658              	cfg_memset_list.4977:
 659 0000 00300F40 		.word	1074737152
 660 0004 0008     		.short	2048
 661 0006 00400F40 		.4byte	1074741248
 662 000a 0008     		.short	2048
 663              		.type	cy_cfg_data_table.4972, %object
 664              		.size	cy_cfg_data_table.4972, 748
 665              	cy_cfg_data_table.4972:
 666 000c 00       		.byte	0
 667 000d 18       		.byte	24
 668 000e 10       		.byte	16
 669 000f 18       		.byte	24
 670 0010 20       		.byte	32
 671 0011 14       		.byte	20
ARM GAS  C:\Users\casey\AppData\Local\Temp\ccidVM6n.s 			page 28


 672 0012 30       		.byte	48
 673 0013 0C       		.byte	12
 674 0014 85       		.byte	-123
 675 0015 03       		.byte	3
 676 0016 86       		.byte	-122
 677 0017 0D       		.byte	13
 678 0018 00       		.byte	0
 679 0019 20       		.byte	32
 680 001a 01       		.byte	1
 681 001b 02       		.byte	2
 682 001c 04       		.byte	4
 683 001d 63       		.byte	99
 684 001e 05       		.byte	5
 685 001f 02       		.byte	2
 686 0020 06       		.byte	6
 687 0021 1C       		.byte	28
 688 0022 08       		.byte	8
 689 0023 04       		.byte	4
 690 0024 0A       		.byte	10
 691 0025 D3       		.byte	-45
 692 0026 0C       		.byte	12
 693 0027 80       		.byte	-128
 694 0028 0F       		.byte	15
 695 0029 05       		.byte	5
 696 002a 11       		.byte	17
 697 002b 02       		.byte	2
 698 002c 14       		.byte	20
 699 002d 01       		.byte	1
 700 002e 15       		.byte	21
 701 002f 02       		.byte	2
 702 0030 16       		.byte	22
 703 0031 02       		.byte	2
 704 0032 1A       		.byte	26
 705 0033 08       		.byte	8
 706 0034 1B       		.byte	27
 707 0035 04       		.byte	4
 708 0036 1F       		.byte	31
 709 0037 04       		.byte	4
 710 0038 23       		.byte	35
 711 0039 01       		.byte	1
 712 003a 24       		.byte	36
 713 003b 01       		.byte	1
 714 003c 28       		.byte	40
 715 003d 02       		.byte	2
 716 003e 2B       		.byte	43
 717 003f 02       		.byte	2
 718 0040 2E       		.byte	46
 719 0041 20       		.byte	32
 720 0042 2F       		.byte	47
 721 0043 01       		.byte	1
 722 0044 30       		.byte	48
 723 0045 E0       		.byte	-32
 724 0046 31       		.byte	49
 725 0047 02       		.byte	2
 726 0048 32       		.byte	50
 727 0049 07       		.byte	7
 728 004a 33       		.byte	51
ARM GAS  C:\Users\casey\AppData\Local\Temp\ccidVM6n.s 			page 29


 729 004b 04       		.byte	4
 730 004c 34       		.byte	52
 731 004d 0C       		.byte	12
 732 004e 35       		.byte	53
 733 004f 01       		.byte	1
 734 0050 36       		.byte	54
 735 0051 10       		.byte	16
 736 0052 38       		.byte	56
 737 0053 02       		.byte	2
 738 0054 3F       		.byte	63
 739 0055 15       		.byte	21
 740 0056 40       		.byte	64
 741 0057 45       		.byte	69
 742 0058 45       		.byte	69
 743 0059 01       		.byte	1
 744 005a 47       		.byte	71
 745 005b 25       		.byte	37
 746 005c 48       		.byte	72
 747 005d 31       		.byte	49
 748 005e 49       		.byte	73
 749 005f FF       		.byte	-1
 750 0060 4A       		.byte	74
 751 0061 FF       		.byte	-1
 752 0062 4B       		.byte	75
 753 0063 FF       		.byte	-1
 754 0064 4D       		.byte	77
 755 0065 A0       		.byte	-96
 756 0066 58       		.byte	88
 757 0067 04       		.byte	4
 758 0068 59       		.byte	89
 759 0069 04       		.byte	4
 760 006a 5A       		.byte	90
 761 006b 04       		.byte	4
 762 006c 5B       		.byte	91
 763 006d 04       		.byte	4
 764 006e 5C       		.byte	92
 765 006f 09       		.byte	9
 766 0070 5D       		.byte	93
 767 0071 09       		.byte	9
 768 0072 5F       		.byte	95
 769 0073 01       		.byte	1
 770 0074 60       		.byte	96
 771 0075 40       		.byte	64
 772 0076 61       		.byte	97
 773 0077 40       		.byte	64
 774 0078 62       		.byte	98
 775 0079 C0       		.byte	-64
 776 007a 64       		.byte	100
 777 007b C0       		.byte	-64
 778 007c 66       		.byte	102
 779 007d C0       		.byte	-64
 780 007e 80       		.byte	-128
 781 007f 0C       		.byte	12
 782 0080 84       		.byte	-124
 783 0081 6D       		.byte	109
 784 0082 85       		.byte	-123
 785 0083 57       		.byte	87
ARM GAS  C:\Users\casey\AppData\Local\Temp\ccidVM6n.s 			page 30


 786 0084 86       		.byte	-122
 787 0085 12       		.byte	18
 788 0086 87       		.byte	-121
 789 0087 08       		.byte	8
 790 0088 89       		.byte	-119
 791 0089 A0       		.byte	-96
 792 008a 8A       		.byte	-118
 793 008b 49       		.byte	73
 794 008c 8B       		.byte	-117
 795 008d 5F       		.byte	95
 796 008e 8D       		.byte	-115
 797 008f 01       		.byte	1
 798 0090 91       		.byte	-111
 799 0091 02       		.byte	2
 800 0092 92       		.byte	-110
 801 0093 89       		.byte	-119
 802 0094 93       		.byte	-109
 803 0095 20       		.byte	32
 804 0096 94       		.byte	-108
 805 0097 A4       		.byte	-92
 806 0098 95       		.byte	-107
 807 0099 04       		.byte	4
 808 009a 96       		.byte	-106
 809 009b 53       		.byte	83
 810 009c 97       		.byte	-105
 811 009d 90       		.byte	-112
 812 009e 9B       		.byte	-101
 813 009f 08       		.byte	8
 814 00a0 9E       		.byte	-98
 815 00a1 49       		.byte	73
 816 00a2 A2       		.byte	-94
 817 00a3 49       		.byte	73
 818 00a4 A4       		.byte	-92
 819 00a5 02       		.byte	2
 820 00a6 A6       		.byte	-90
 821 00a7 10       		.byte	16
 822 00a8 AE       		.byte	-82
 823 00a9 0C       		.byte	12
 824 00aa AF       		.byte	-81
 825 00ab 57       		.byte	87
 826 00ac B0       		.byte	-80
 827 00ad C0       		.byte	-64
 828 00ae B2       		.byte	-78
 829 00af 38       		.byte	56
 830 00b0 B3       		.byte	-77
 831 00b1 0F       		.byte	15
 832 00b2 B4       		.byte	-76
 833 00b3 07       		.byte	7
 834 00b4 B5       		.byte	-75
 835 00b5 C0       		.byte	-64
 836 00b6 B7       		.byte	-73
 837 00b7 30       		.byte	48
 838 00b8 B8       		.byte	-72
 839 00b9 08       		.byte	8
 840 00ba BA       		.byte	-70
 841 00bb 02       		.byte	2
 842 00bc BB       		.byte	-69
ARM GAS  C:\Users\casey\AppData\Local\Temp\ccidVM6n.s 			page 31


 843 00bd A0       		.byte	-96
 844 00be C0       		.byte	-64
 845 00bf 26       		.byte	38
 846 00c0 C5       		.byte	-59
 847 00c1 0B       		.byte	11
 848 00c2 C6       		.byte	-58
 849 00c3 0C       		.byte	12
 850 00c4 C7       		.byte	-57
 851 00c5 0E       		.byte	14
 852 00c6 C8       		.byte	-56
 853 00c7 15       		.byte	21
 854 00c8 C9       		.byte	-55
 855 00c9 FF       		.byte	-1
 856 00ca CA       		.byte	-54
 857 00cb FF       		.byte	-1
 858 00cc CB       		.byte	-53
 859 00cd FF       		.byte	-1
 860 00ce D8       		.byte	-40
 861 00cf 04       		.byte	4
 862 00d0 D9       		.byte	-39
 863 00d1 04       		.byte	4
 864 00d2 DA       		.byte	-38
 865 00d3 04       		.byte	4
 866 00d4 DB       		.byte	-37
 867 00d5 04       		.byte	4
 868 00d6 DC       		.byte	-36
 869 00d7 99       		.byte	-103
 870 00d8 DD       		.byte	-35
 871 00d9 09       		.byte	9
 872 00da DF       		.byte	-33
 873 00db 01       		.byte	1
 874 00dc E2       		.byte	-30
 875 00dd C0       		.byte	-64
 876 00de E4       		.byte	-28
 877 00df 40       		.byte	64
 878 00e0 E5       		.byte	-27
 879 00e1 01       		.byte	1
 880 00e2 00       		.byte	0
 881 00e3 64       		.byte	100
 882 00e4 02       		.byte	2
 883 00e5 40       		.byte	64
 884 00e6 04       		.byte	4
 885 00e7 04       		.byte	4
 886 00e8 06       		.byte	6
 887 00e9 40       		.byte	64
 888 00ea 07       		.byte	7
 889 00eb 84       		.byte	-124
 890 00ec 0A       		.byte	10
 891 00ed 28       		.byte	40
 892 00ee 0D       		.byte	13
 893 00ef 82       		.byte	-126
 894 00f0 0E       		.byte	14
 895 00f1 20       		.byte	32
 896 00f2 10       		.byte	16
 897 00f3 20       		.byte	32
 898 00f4 11       		.byte	17
 899 00f5 40       		.byte	64
ARM GAS  C:\Users\casey\AppData\Local\Temp\ccidVM6n.s 			page 32


 900 00f6 12       		.byte	18
 901 00f7 08       		.byte	8
 902 00f8 15       		.byte	21
 903 00f9 42       		.byte	66
 904 00fa 17       		.byte	23
 905 00fb 08       		.byte	8
 906 00fc 18       		.byte	24
 907 00fd 42       		.byte	66
 908 00fe 1A       		.byte	26
 909 00ff 08       		.byte	8
 910 0100 1B       		.byte	27
 911 0101 44       		.byte	68
 912 0102 1C       		.byte	28
 913 0103 A4       		.byte	-92
 914 0104 1D       		.byte	29
 915 0105 02       		.byte	2
 916 0106 1E       		.byte	30
 917 0107 20       		.byte	32
 918 0108 21       		.byte	33
 919 0109 08       		.byte	8
 920 010a 22       		.byte	34
 921 010b 21       		.byte	33
 922 010c 25       		.byte	37
 923 010d 80       		.byte	-128
 924 010e 27       		.byte	39
 925 010f 26       		.byte	38
 926 0110 29       		.byte	41
 927 0111 40       		.byte	64
 928 0112 2B       		.byte	43
 929 0113 44       		.byte	68
 930 0114 2C       		.byte	44
 931 0115 02       		.byte	2
 932 0116 30       		.byte	48
 933 0117 08       		.byte	8
 934 0118 31       		.byte	49
 935 0119 20       		.byte	32
 936 011a 33       		.byte	51
 937 011b 41       		.byte	65
 938 011c 37       		.byte	55
 939 011d 26       		.byte	38
 940 011e 39       		.byte	57
 941 011f 45       		.byte	69
 942 0120 3B       		.byte	59
 943 0121 80       		.byte	-128
 944 0122 3C       		.byte	60
 945 0123 A4       		.byte	-92
 946 0124 40       		.byte	64
 947 0125 40       		.byte	64
 948 0126 42       		.byte	66
 949 0127 10       		.byte	16
 950 0128 43       		.byte	67
 951 0129 08       		.byte	8
 952 012a 47       		.byte	71
 953 012b 20       		.byte	32
 954 012c 48       		.byte	72
 955 012d 22       		.byte	34
 956 012e 4E       		.byte	78
ARM GAS  C:\Users\casey\AppData\Local\Temp\ccidVM6n.s 			page 33


 957 012f 14       		.byte	20
 958 0130 50       		.byte	80
 959 0131 02       		.byte	2
 960 0132 51       		.byte	81
 961 0133 01       		.byte	1
 962 0134 52       		.byte	82
 963 0135 08       		.byte	8
 964 0136 56       		.byte	86
 965 0137 40       		.byte	64
 966 0138 57       		.byte	87
 967 0139 08       		.byte	8
 968 013a 5E       		.byte	94
 969 013b 10       		.byte	16
 970 013c 5F       		.byte	95
 971 013d 80       		.byte	-128
 972 013e 64       		.byte	100
 973 013f 20       		.byte	32
 974 0140 67       		.byte	103
 975 0141 80       		.byte	-128
 976 0142 68       		.byte	104
 977 0143 08       		.byte	8
 978 0144 69       		.byte	105
 979 0145 05       		.byte	5
 980 0146 6B       		.byte	107
 981 0147 01       		.byte	1
 982 0148 6D       		.byte	109
 983 0149 40       		.byte	64
 984 014a 6F       		.byte	111
 985 014b 40       		.byte	64
 986 014c 75       		.byte	117
 987 014d 40       		.byte	64
 988 014e 77       		.byte	119
 989 014f 08       		.byte	8
 990 0150 82       		.byte	-126
 991 0151 20       		.byte	32
 992 0152 85       		.byte	-123
 993 0153 08       		.byte	8
 994 0154 86       		.byte	-122
 995 0155 01       		.byte	1
 996 0156 C0       		.byte	-64
 997 0157 7F       		.byte	127
 998 0158 C2       		.byte	-62
 999 0159 B6       		.byte	-74
 1000 015a C4       		.byte	-60
 1001 015b B7       		.byte	-73
 1002 015c CA       		.byte	-54
 1003 015d 1D       		.byte	29
 1004 015e CC       		.byte	-52
 1005 015f EF       		.byte	-17
 1006 0160 CE       		.byte	-50
 1007 0161 7B       		.byte	123
 1008 0162 D0       		.byte	-48
 1009 0163 21       		.byte	33
 1010 0164 D2       		.byte	-46
 1011 0165 28       		.byte	40
 1012 0166 D6       		.byte	-42
 1013 0167 30       		.byte	48
ARM GAS  C:\Users\casey\AppData\Local\Temp\ccidVM6n.s 			page 34


 1014 0168 D8       		.byte	-40
 1015 0169 C0       		.byte	-64
 1016 016a E4       		.byte	-28
 1017 016b 02       		.byte	2
 1018 016c 8C       		.byte	-116
 1019 016d 04       		.byte	4
 1020 016e A8       		.byte	-88
 1021 016f 21       		.byte	33
 1022 0170 B1       		.byte	-79
 1023 0171 20       		.byte	32
 1024 0172 B2       		.byte	-78
 1025 0173 40       		.byte	64
 1026 0174 01       		.byte	1
 1027 0175 02       		.byte	2
 1028 0176 04       		.byte	4
 1029 0177 02       		.byte	2
 1030 0178 05       		.byte	5
 1031 0179 01       		.byte	1
 1032 017a 08       		.byte	8
 1033 017b 01       		.byte	1
 1034 017c 31       		.byte	49
 1035 017d 01       		.byte	1
 1036 017e 32       		.byte	50
 1037 017f 02       		.byte	2
 1038 0180 35       		.byte	53
 1039 0181 02       		.byte	2
 1040 0182 36       		.byte	54
 1041 0183 01       		.byte	1
 1042 0184 3E       		.byte	62
 1043 0185 44       		.byte	68
 1044 0186 3F       		.byte	63
 1045 0187 11       		.byte	17
 1046 0188 40       		.byte	64
 1047 0189 51       		.byte	81
 1048 018a 49       		.byte	73
 1049 018b FF       		.byte	-1
 1050 018c 4A       		.byte	74
 1051 018d FF       		.byte	-1
 1052 018e 4B       		.byte	75
 1053 018f FF       		.byte	-1
 1054 0190 4F       		.byte	79
 1055 0191 01       		.byte	1
 1056 0192 50       		.byte	80
 1057 0193 18       		.byte	24
 1058 0194 58       		.byte	88
 1059 0195 04       		.byte	4
 1060 0196 59       		.byte	89
 1061 0197 04       		.byte	4
 1062 0198 5A       		.byte	90
 1063 0199 04       		.byte	4
 1064 019a 5B       		.byte	91
 1065 019b 04       		.byte	4
 1066 019c 5D       		.byte	93
 1067 019d 01       		.byte	1
 1068 019e 5F       		.byte	95
 1069 019f 01       		.byte	1
 1070 01a0 60       		.byte	96
ARM GAS  C:\Users\casey\AppData\Local\Temp\ccidVM6n.s 			page 35


 1071 01a1 40       		.byte	64
 1072 01a2 62       		.byte	98
 1073 01a3 40       		.byte	64
 1074 01a4 64       		.byte	100
 1075 01a5 40       		.byte	64
 1076 01a6 65       		.byte	101
 1077 01a7 40       		.byte	64
 1078 01a8 66       		.byte	102
 1079 01a9 80       		.byte	-128
 1080 01aa 68       		.byte	104
 1081 01ab 80       		.byte	-128
 1082 01ac 6A       		.byte	106
 1083 01ad 80       		.byte	-128
 1084 01ae 6C       		.byte	108
 1085 01af 80       		.byte	-128
 1086 01b0 6E       		.byte	110
 1087 01b1 80       		.byte	-128
 1088 01b2 95       		.byte	-107
 1089 01b3 01       		.byte	1
 1090 01b4 A5       		.byte	-91
 1091 01b5 02       		.byte	2
 1092 01b6 B1       		.byte	-79
 1093 01b7 01       		.byte	1
 1094 01b8 B3       		.byte	-77
 1095 01b9 02       		.byte	2
 1096 01ba C0       		.byte	-64
 1097 01bb 41       		.byte	65
 1098 01bc C9       		.byte	-55
 1099 01bd FF       		.byte	-1
 1100 01be CA       		.byte	-54
 1101 01bf FF       		.byte	-1
 1102 01c0 CB       		.byte	-53
 1103 01c1 FF       		.byte	-1
 1104 01c2 CD       		.byte	-51
 1105 01c3 83       		.byte	-125
 1106 01c4 CE       		.byte	-50
 1107 01c5 03       		.byte	3
 1108 01c6 CF       		.byte	-49
 1109 01c7 01       		.byte	1
 1110 01c8 D0       		.byte	-48
 1111 01c9 18       		.byte	24
 1112 01ca D2       		.byte	-46
 1113 01cb 80       		.byte	-128
 1114 01cc D6       		.byte	-42
 1115 01cd 04       		.byte	4
 1116 01ce D9       		.byte	-39
 1117 01cf 04       		.byte	4
 1118 01d0 DA       		.byte	-38
 1119 01d1 04       		.byte	4
 1120 01d2 DB       		.byte	-37
 1121 01d3 04       		.byte	4
 1122 01d4 DC       		.byte	-36
 1123 01d5 30       		.byte	48
 1124 01d6 DD       		.byte	-35
 1125 01d7 11       		.byte	17
 1126 01d8 DF       		.byte	-33
 1127 01d9 01       		.byte	1
ARM GAS  C:\Users\casey\AppData\Local\Temp\ccidVM6n.s 			page 36


 1128 01da E0       		.byte	-32
 1129 01db 40       		.byte	64
 1130 01dc E2       		.byte	-30
 1131 01dd 40       		.byte	64
 1132 01de E4       		.byte	-28
 1133 01df 40       		.byte	64
 1134 01e0 E5       		.byte	-27
 1135 01e1 40       		.byte	64
 1136 01e2 E6       		.byte	-26
 1137 01e3 80       		.byte	-128
 1138 01e4 E8       		.byte	-24
 1139 01e5 80       		.byte	-128
 1140 01e6 EA       		.byte	-22
 1141 01e7 80       		.byte	-128
 1142 01e8 EC       		.byte	-20
 1143 01e9 80       		.byte	-128
 1144 01ea EE       		.byte	-18
 1145 01eb 80       		.byte	-128
 1146 01ec 01       		.byte	1
 1147 01ed 20       		.byte	32
 1148 01ee 02       		.byte	2
 1149 01ef 20       		.byte	32
 1150 01f0 19       		.byte	25
 1151 01f1 44       		.byte	68
 1152 01f2 22       		.byte	34
 1153 01f3 11       		.byte	17
 1154 01f4 24       		.byte	36
 1155 01f5 40       		.byte	64
 1156 01f6 27       		.byte	39
 1157 01f7 20       		.byte	32
 1158 01f8 2F       		.byte	47
 1159 01f9 10       		.byte	16
 1160 01fa 36       		.byte	54
 1161 01fb 08       		.byte	8
 1162 01fc 38       		.byte	56
 1163 01fd 06       		.byte	6
 1164 01fe 42       		.byte	66
 1165 01ff 02       		.byte	2
 1166 0200 46       		.byte	70
 1167 0201 42       		.byte	66
 1168 0202 48       		.byte	72
 1169 0203 01       		.byte	1
 1170 0204 59       		.byte	89
 1171 0205 44       		.byte	68
 1172 0206 5A       		.byte	90
 1173 0207 22       		.byte	34
 1174 0208 5C       		.byte	92
 1175 0209 40       		.byte	64
 1176 020a 5F       		.byte	95
 1177 020b 20       		.byte	32
 1178 020c 67       		.byte	103
 1179 020d 40       		.byte	64
 1180 020e 74       		.byte	116
 1181 020f 01       		.byte	1
 1182 0210 76       		.byte	118
 1183 0211 40       		.byte	64
 1184 0212 87       		.byte	-121
ARM GAS  C:\Users\casey\AppData\Local\Temp\ccidVM6n.s 			page 37


 1185 0213 40       		.byte	64
 1186 0214 90       		.byte	-112
 1187 0215 06       		.byte	6
 1188 0216 99       		.byte	-103
 1189 0217 20       		.byte	32
 1190 0218 B1       		.byte	-79
 1191 0219 20       		.byte	32
 1192 021a B4       		.byte	-76
 1193 021b 01       		.byte	1
 1194 021c C0       		.byte	-64
 1195 021d 06       		.byte	6
 1196 021e CA       		.byte	-54
 1197 021f 40       		.byte	64
 1198 0220 CC       		.byte	-52
 1199 0221 40       		.byte	64
 1200 0222 CE       		.byte	-50
 1201 0223 03       		.byte	3
 1202 0224 D0       		.byte	-48
 1203 0225 98       		.byte	-104
 1204 0226 D2       		.byte	-46
 1205 0227 08       		.byte	8
 1206 0228 D6       		.byte	-42
 1207 0229 3F       		.byte	63
 1208 022a D8       		.byte	-40
 1209 022b 80       		.byte	-128
 1210 022c 02       		.byte	2
 1211 022d 01       		.byte	1
 1212 022e 0E       		.byte	14
 1213 022f 01       		.byte	1
 1214 0230 30       		.byte	48
 1215 0231 01       		.byte	1
 1216 0232 3E       		.byte	62
 1217 0233 01       		.byte	1
 1218 0234 40       		.byte	64
 1219 0235 41       		.byte	65
 1220 0236 45       		.byte	69
 1221 0237 EC       		.byte	-20
 1222 0238 47       		.byte	71
 1223 0239 20       		.byte	32
 1224 023a 48       		.byte	72
 1225 023b 23       		.byte	35
 1226 023c 49       		.byte	73
 1227 023d FF       		.byte	-1
 1228 023e 4A       		.byte	74
 1229 023f FF       		.byte	-1
 1230 0240 4B       		.byte	75
 1231 0241 FF       		.byte	-1
 1232 0242 4D       		.byte	77
 1233 0243 83       		.byte	-125
 1234 0244 4E       		.byte	78
 1235 0245 03       		.byte	3
 1236 0246 4F       		.byte	79
 1237 0247 01       		.byte	1
 1238 0248 50       		.byte	80
 1239 0249 18       		.byte	24
 1240 024a 54       		.byte	84
 1241 024b 01       		.byte	1
ARM GAS  C:\Users\casey\AppData\Local\Temp\ccidVM6n.s 			page 38


 1242 024c 56       		.byte	86
 1243 024d 04       		.byte	4
 1244 024e 58       		.byte	88
 1245 024f 04       		.byte	4
 1246 0250 5A       		.byte	90
 1247 0251 04       		.byte	4
 1248 0252 5B       		.byte	91
 1249 0253 04       		.byte	4
 1250 0254 5D       		.byte	93
 1251 0255 11       		.byte	17
 1252 0256 5F       		.byte	95
 1253 0257 01       		.byte	1
 1254 0258 60       		.byte	96
 1255 0259 40       		.byte	64
 1256 025a 62       		.byte	98
 1257 025b 40       		.byte	64
 1258 025c 64       		.byte	100
 1259 025d 40       		.byte	64
 1260 025e 65       		.byte	101
 1261 025f 40       		.byte	64
 1262 0260 66       		.byte	102
 1263 0261 80       		.byte	-128
 1264 0262 68       		.byte	104
 1265 0263 80       		.byte	-128
 1266 0264 6A       		.byte	106
 1267 0265 80       		.byte	-128
 1268 0266 6C       		.byte	108
 1269 0267 80       		.byte	-128
 1270 0268 6E       		.byte	110
 1271 0269 80       		.byte	-128
 1272 026a 06       		.byte	6
 1273 026b 42       		.byte	66
 1274 026c 1E       		.byte	30
 1275 026d 80       		.byte	-128
 1276 026e 46       		.byte	70
 1277 026f 42       		.byte	66
 1278 0270 4D       		.byte	77
 1279 0271 04       		.byte	4
 1280 0272 4F       		.byte	79
 1281 0273 01       		.byte	1
 1282 0274 56       		.byte	86
 1283 0275 02       		.byte	2
 1284 0276 5D       		.byte	93
 1285 0277 04       		.byte	4
 1286 0278 5E       		.byte	94
 1287 0279 80       		.byte	-128
 1288 027a 5F       		.byte	95
 1289 027b 01       		.byte	1
 1290 027c 65       		.byte	101
 1291 027d 01       		.byte	1
 1292 027e 8D       		.byte	-115
 1293 027f 01       		.byte	1
 1294 0280 9A       		.byte	-102
 1295 0281 40       		.byte	64
 1296 0282 9E       		.byte	-98
 1297 0283 02       		.byte	2
 1298 0284 AF       		.byte	-81
ARM GAS  C:\Users\casey\AppData\Local\Temp\ccidVM6n.s 			page 39


 1299 0285 10       		.byte	16
 1300 0286 B6       		.byte	-74
 1301 0287 28       		.byte	40
 1302 0288 C0       		.byte	-64
 1303 0289 90       		.byte	-112
 1304 028a D0       		.byte	-48
 1305 028b 90       		.byte	-112
 1306 028c D6       		.byte	-42
 1307 028d D0       		.byte	-48
 1308 028e D8       		.byte	-40
 1309 028f 80       		.byte	-128
 1310 0290 E6       		.byte	-26
 1311 0291 40       		.byte	64
 1312 0292 EC       		.byte	-20
 1313 0293 40       		.byte	64
 1314 0294 6A       		.byte	106
 1315 0295 80       		.byte	-128
 1316 0296 6F       		.byte	111
 1317 0297 81       		.byte	-127
 1318 0298 73       		.byte	115
 1319 0299 02       		.byte	2
 1320 029a 74       		.byte	116
 1321 029b 02       		.byte	2
 1322 029c 7B       		.byte	123
 1323 029d 01       		.byte	1
 1324 029e 82       		.byte	-126
 1325 029f 40       		.byte	64
 1326 02a0 87       		.byte	-121
 1327 02a1 01       		.byte	1
 1328 02a2 DA       		.byte	-38
 1329 02a3 C0       		.byte	-64
 1330 02a4 DC       		.byte	-36
 1331 02a5 E0       		.byte	-32
 1332 02a6 DE       		.byte	-34
 1333 02a7 20       		.byte	32
 1334 02a8 E2       		.byte	-30
 1335 02a9 40       		.byte	64
 1336 02aa E6       		.byte	-26
 1337 02ab 80       		.byte	-128
 1338 02ac 1B       		.byte	27
 1339 02ad 80       		.byte	-128
 1340 02ae 2B       		.byte	43
 1341 02af 01       		.byte	1
 1342 02b0 9F       		.byte	-97
 1343 02b1 02       		.byte	2
 1344 02b2 A4       		.byte	-92
 1345 02b3 02       		.byte	2
 1346 02b4 A7       		.byte	-89
 1347 02b5 81       		.byte	-127
 1348 02b6 C6       		.byte	-58
 1349 02b7 40       		.byte	64
 1350 02b8 CA       		.byte	-54
 1351 02b9 10       		.byte	16
 1352 02ba 03       		.byte	3
 1353 02bb 08       		.byte	8
 1354 02bc 04       		.byte	4
 1355 02bd 20       		.byte	32
ARM GAS  C:\Users\casey\AppData\Local\Temp\ccidVM6n.s 			page 40


 1356 02be 87       		.byte	-121
 1357 02bf 02       		.byte	2
 1358 02c0 9F       		.byte	-97
 1359 02c1 02       		.byte	2
 1360 02c2 A4       		.byte	-92
 1361 02c3 02       		.byte	2
 1362 02c4 C0       		.byte	-64
 1363 02c5 C0       		.byte	-64
 1364 02c6 E6       		.byte	-26
 1365 02c7 40       		.byte	64
 1366 02c8 8C       		.byte	-116
 1367 02c9 02       		.byte	2
 1368 02ca A4       		.byte	-92
 1369 02cb 02       		.byte	2
 1370 02cc AF       		.byte	-81
 1371 02cd 08       		.byte	8
 1372 02ce B4       		.byte	-76
 1373 02cf 10       		.byte	16
 1374 02d0 EC       		.byte	-20
 1375 02d1 40       		.byte	64
 1376 02d2 5F       		.byte	95
 1377 02d3 02       		.byte	2
 1378 02d4 87       		.byte	-121
 1379 02d5 02       		.byte	2
 1380 02d6 D6       		.byte	-42
 1381 02d7 01       		.byte	1
 1382 02d8 03       		.byte	3
 1383 02d9 08       		.byte	8
 1384 02da 04       		.byte	4
 1385 02db 40       		.byte	64
 1386 02dc 0A       		.byte	10
 1387 02dd 80       		.byte	-128
 1388 02de 0F       		.byte	15
 1389 02df 80       		.byte	-128
 1390 02e0 8F       		.byte	-113
 1391 02e1 40       		.byte	64
 1392 02e2 C0       		.byte	-64
 1393 02e3 03       		.byte	3
 1394 02e4 C2       		.byte	-62
 1395 02e5 0C       		.byte	12
 1396 02e6 E6       		.byte	-26
 1397 02e7 02       		.byte	2
 1398 02e8 92       		.byte	-110
 1399 02e9 80       		.byte	-128
 1400 02ea B3       		.byte	-77
 1401 02eb 08       		.byte	8
 1402 02ec B4       		.byte	-76
 1403 02ed 40       		.byte	64
 1404 02ee EA       		.byte	-22
 1405 02ef 06       		.byte	6
 1406 02f0 B6       		.byte	-74
 1407 02f1 40       		.byte	64
 1408 02f2 EA       		.byte	-22
 1409 02f3 08       		.byte	8
 1410 02f4 11       		.byte	17
 1411 02f5 01       		.byte	1
 1412 02f6 12       		.byte	18
ARM GAS  C:\Users\casey\AppData\Local\Temp\ccidVM6n.s 			page 41


 1413 02f7 0A       		.byte	10
 1414              		.type	cy_cfg_addr_table.4971, %object
 1415              		.size	cy_cfg_addr_table.4971, 68
 1416              	cy_cfg_addr_table.4971:
 1417 02f8 06000F40 		.word	1074724870
 1418 02fc 65300F40 		.word	1074737253
 1419 0300 45310F40 		.word	1074737477
 1420 0304 04330F40 		.word	1074737924
 1421 0308 3C340F40 		.word	1074738236
 1422 030c 20350F40 		.word	1074738464
 1423 0310 1F360F40 		.word	1074738719
 1424 0314 15370F40 		.word	1074738965
 1425 0318 0C400F40 		.word	1074741260
 1426 031c 07410F40 		.word	1074741511
 1427 0320 07420F40 		.word	1074741767
 1428 0324 05430F40 		.word	1074742021
 1429 0328 03440F40 		.word	1074742275
 1430 032c 08450F40 		.word	1074742536
 1431 0330 04460F40 		.word	1074742788
 1432 0334 02470F40 		.word	1074743042
 1433 0338 02600F40 		.word	1074749442
 1434              		.text
 1435              	.Letext0:
 1436              		.file 2 "c:\\program files (x86)\\cypress\\psoc creator\\4.4\\psoc creator\\import\\gnu\\arm\\5.4.
 1437              		.file 3 "Generated_Source\\PSoC4\\cytypes.h"
 1438              		.file 4 "Generated_Source\\PSoC4\\CyLib.h"