ARM GAS  C:\Users\mewin\AppData\Local\Temp\ccu9q5Cc.s 			page 1


   1              		.syntax unified
   2              		.cpu cortex-m0
   3              		.fpu softvfp
   4              		.eabi_attribute 20, 1
   5              		.eabi_attribute 21, 1
   6              		.eabi_attribute 23, 3
   7              		.eabi_attribute 24, 1
   8              		.eabi_attribute 25, 1
   9              		.eabi_attribute 26, 1
  10              		.eabi_attribute 30, 1
  11              		.eabi_attribute 34, 0
  12              		.eabi_attribute 18, 4
  13              		.thumb
  14              		.syntax unified
  15              		.file	"DebugMessages.c"
  16              		.text
  17              	.Ltext0:
  18              		.cfi_sections	.debug_frame
  19              		.section	.text.InitializeMessage,"ax",%progbits
  20              		.align	2
  21              		.global	InitializeMessage
  22              		.code	16
  23              		.thumb_func
  24              		.type	InitializeMessage, %function
  25              	InitializeMessage:
  26              	.LFB35:
  27              		.file 1 "DebugMessages.c"
   1:DebugMessages.c **** /* ========================================
   2:DebugMessages.c ****  *
   3:DebugMessages.c ****  * Copyright YOUR COMPANY, THE YEAR
   4:DebugMessages.c ****  * All Rights Reserved
   5:DebugMessages.c ****  * UNPUBLISHED, LICENSED SOFTWARE.
   6:DebugMessages.c ****  *
   7:DebugMessages.c ****  * CONFIDENTIAL AND PROPRIETARY INFORMATION
   8:DebugMessages.c ****  * WHICH IS THE PROPERTY OF your company.
   9:DebugMessages.c ****  *
  10:DebugMessages.c ****  * ========================================
  11:DebugMessages.c **** */
  12:DebugMessages.c **** #include "DebugMessages.h"
  13:DebugMessages.c **** #include "cyapicallbacks.h"
  14:DebugMessages.c **** #include <stdio.h>
  15:DebugMessages.c **** #include <stdlib.h>
  16:DebugMessages.c **** 
  17:DebugMessages.c **** extern char8 txData[TX_DATA_SIZE];
  18:DebugMessages.c **** extern volatile uint8_t address;
  19:DebugMessages.c **** 
  20:DebugMessages.c **** void InitializeMessage(void){
  28              		.loc 1 20 0
  29              		.cfi_startproc
  30              		@ args = 0, pretend = 0, frame = 0
  31              		@ frame_needed = 0, uses_anonymous_args = 0
  32 0000 10B5     		push	{r4, lr}
  33              		.cfi_def_cfa_offset 8
  34              		.cfi_offset 4, -8
  35              		.cfi_offset 14, -4
  21:DebugMessages.c ****     UART_UartPutString("\r\n-------------------------Reset-------------------------");
  36              		.loc 1 21 0
ARM GAS  C:\Users\mewin\AppData\Local\Temp\ccu9q5Cc.s 			page 2


  37 0002 0F48     		ldr	r0, .L3
  38 0004 FFF7FEFF 		bl	UART_UartPutString
  39              	.LVL0:
  22:DebugMessages.c ****     sprintf(txData, "\r\n\r\nAddr: %x \r\n", address);
  40              		.loc 1 22 0
  41 0008 0E4B     		ldr	r3, .L3+4
  42 000a 1A78     		ldrb	r2, [r3]
  43 000c D2B2     		uxtb	r2, r2
  44 000e 0E4C     		ldr	r4, .L3+8
  45 0010 0E49     		ldr	r1, .L3+12
  46 0012 2000     		movs	r0, r4
  47 0014 FFF7FEFF 		bl	sprintf
  48              	.LVL1:
  23:DebugMessages.c ****     UART_UartPutString(txData);
  49              		.loc 1 23 0
  50 0018 2000     		movs	r0, r4
  51 001a FFF7FEFF 		bl	UART_UartPutString
  52              	.LVL2:
  24:DebugMessages.c ****     UART_UartPutString("\r\nWelcome to Motor CAN Tester press enter to continue \r\n");
  53              		.loc 1 24 0
  54 001e 0C48     		ldr	r0, .L3+16
  55 0020 FFF7FEFF 		bl	UART_UartPutString
  56              	.LVL3:
  57              	.L2:
  25:DebugMessages.c ****     while(UART_UartGetChar() == 0){//y in ascii
  58              		.loc 1 25 0 discriminator 1
  59 0024 FFF7FEFF 		bl	UART_UartGetChar
  60              	.LVL4:
  61 0028 0028     		cmp	r0, #0
  62 002a FBD0     		beq	.L2
  26:DebugMessages.c ****     }
  27:DebugMessages.c ****     UART_SpiUartClearRxBuffer(); 
  63              		.loc 1 27 0
  64 002c FFF7FEFF 		bl	UART_SpiUartClearRxBuffer
  65              	.LVL5:
  28:DebugMessages.c ****     //clear the line return;
  29:DebugMessages.c ****     UART_UartPutString("\r\n-------------------------WARNING-------------------------");
  66              		.loc 1 29 0
  67 0030 0848     		ldr	r0, .L3+20
  68 0032 FFF7FEFF 		bl	UART_UartPutString
  69              	.LVL6:
  30:DebugMessages.c ****     UART_UartPutString("\r\nMake Sure the motors CAN MOVE FREELY. \r\nBe prepared to disconnect pow
  70              		.loc 1 30 0
  71 0036 0848     		ldr	r0, .L3+24
  72 0038 FFF7FEFF 		bl	UART_UartPutString
  73              	.LVL7:
  31:DebugMessages.c **** }
  74              		.loc 1 31 0
  75              		@ sp needed
  76 003c 10BD     		pop	{r4, pc}
  77              	.L4:
  78 003e C046     		.align	2
  79              	.L3:
  80 0040 00000000 		.word	.LC0
  81 0044 00000000 		.word	address
  82 0048 00000000 		.word	txData
  83 004c 3C000000 		.word	.LC3
ARM GAS  C:\Users\mewin\AppData\Local\Temp\ccu9q5Cc.s 			page 3


  84 0050 4C000000 		.word	.LC6
  85 0054 88000000 		.word	.LC8
  86 0058 C4000000 		.word	.LC10
  87              		.cfi_endproc
  88              	.LFE35:
  89              		.size	InitializeMessage, .-InitializeMessage
  90              		.section	.text.StoreUARTBufferToArray,"ax",%progbits
  91              		.align	2
  92              		.global	StoreUARTBufferToArray
  93              		.code	16
  94              		.thumb_func
  95              		.type	StoreUARTBufferToArray, %function
  96              	StoreUARTBufferToArray:
  97              	.LFB40:
  32:DebugMessages.c **** 
  33:DebugMessages.c **** uint8_t SelectModeMessage(void){
  34:DebugMessages.c ****     UART_UartPutString("\r\n-------------------------MODE SEL-------------------------");
  35:DebugMessages.c ****     UART_UartPutString("\r\nSelect a mode(type a number): \r\n 0: PWM \r\n 1: PID \r\nMode: ");
  36:DebugMessages.c ****     uint8_t response = UART_UartGetChar();
  37:DebugMessages.c ****     while (response < 48 + 0 || response > 48 + 1) {
  38:DebugMessages.c ****         response = UART_UartGetChar();
  39:DebugMessages.c ****     }
  40:DebugMessages.c ****     switch(response) {
  41:DebugMessages.c ****         case(48):
  42:DebugMessages.c ****             UART_UartPutString("\r\nPWM Mode Selected\r\n");
  43:DebugMessages.c ****             return 0;
  44:DebugMessages.c ****             break;
  45:DebugMessages.c ****         case(49):
  46:DebugMessages.c ****             UART_UartPutString("\r\nPID Mode Selected\r\n");
  47:DebugMessages.c ****             return(NeedToImplementMessage());
  48:DebugMessages.c ****             break;
  49:DebugMessages.c ****         case(50):
  50:DebugMessages.c ****             UART_UartPutString("\r\nCAN SEND Mode Selected\r\n");
  51:DebugMessages.c ****             return(NeedToImplementMessage());
  52:DebugMessages.c ****             break;
  53:DebugMessages.c ****         case(51):
  54:DebugMessages.c ****             UART_UartPutString("\r\nCAN READ Mode Selected\r\n");
  55:DebugMessages.c ****             return(NeedToImplementMessage());
  56:DebugMessages.c ****             break;
  57:DebugMessages.c ****         default:
  58:DebugMessages.c ****             UART_UartPutString("\r\nERROR SENDING BACK TO MODE SELECT\r\n");
  59:DebugMessages.c ****             return(0xFF);
  60:DebugMessages.c ****             break;
  61:DebugMessages.c ****     }
  62:DebugMessages.c **** }
  63:DebugMessages.c **** 
  64:DebugMessages.c **** uint8_t SetTargetSerial(void) {
  65:DebugMessages.c ****     UART_UartPutString("\r\n-------------------------SERIAL VALUE-------------------------");
  66:DebugMessages.c ****     UART_UartPutString("\r\nSerial are values between 1-63. 0 is broadcast and is disabled for saft
  67:DebugMessages.c ****     uint8_t serial = 0;   
  68:DebugMessages.c ****     do {
  69:DebugMessages.c ****         serial = ReadNumberFromUART();
  70:DebugMessages.c ****     } while (serial <= 0 || serial > 63);
  71:DebugMessages.c ****     sprintf(txData, "Serial Value: %d\r\n", serial);
  72:DebugMessages.c ****     UART_UartPutString(txData);
  73:DebugMessages.c ****     return serial;
  74:DebugMessages.c **** }
ARM GAS  C:\Users\mewin\AppData\Local\Temp\ccu9q5Cc.s 			page 4


  75:DebugMessages.c **** 
  76:DebugMessages.c **** int32_t SetMotorPWM(void){
  77:DebugMessages.c ****     UART_SpiUartClearRxBuffer();
  78:DebugMessages.c ****     UART_UartPutString("\r\n-------------------------PWM VALUE-------------------------");
  79:DebugMessages.c ****     UART_UartPutString("\r\nSet a PWM value between  −32,768 and 32,767\r\nValue: ");
  80:DebugMessages.c ****     int32_t result = ReadNumberFromUART();
  81:DebugMessages.c ****     sprintf(txData, "PWM Value: %d\r\n", result);
  82:DebugMessages.c ****     UART_UartPutString(txData);
  83:DebugMessages.c ****     return(result);
  84:DebugMessages.c **** }
  85:DebugMessages.c **** 
  86:DebugMessages.c **** int32_t ReadNumberFromUART(void) {
  87:DebugMessages.c ****     char buffer[100];
  88:DebugMessages.c ****     uint8_t size = 100;
  89:DebugMessages.c ****     StoreUARTBufferToArray(buffer,size);
  90:DebugMessages.c ****     return atoi(buffer);
  91:DebugMessages.c **** }
  92:DebugMessages.c **** 
  93:DebugMessages.c **** void StoreUARTBufferToArray(char* buffer, uint8_t size){
  98              		.loc 1 93 0
  99              		.cfi_startproc
 100              		@ args = 0, pretend = 0, frame = 0
 101              		@ frame_needed = 0, uses_anonymous_args = 0
 102              	.LVL8:
 103 0000 70B5     		push	{r4, r5, r6, lr}
 104              		.cfi_def_cfa_offset 16
 105              		.cfi_offset 4, -16
 106              		.cfi_offset 5, -12
 107              		.cfi_offset 6, -8
 108              		.cfi_offset 14, -4
 109 0002 0500     		movs	r5, r0
 110 0004 0E00     		movs	r6, r1
 111              	.LVL9:
 112              	.L6:
  94:DebugMessages.c ****     uint8_t index = 1;   
  95:DebugMessages.c ****     uint8_t response;
  96:DebugMessages.c ****     
  97:DebugMessages.c ****     do {
  98:DebugMessages.c ****         response = UART_UartGetChar();
 113              		.loc 1 98 0 discriminator 1
 114 0006 FFF7FEFF 		bl	UART_UartGetChar
 115              	.LVL10:
 116 000a C0B2     		uxtb	r0, r0
 117              	.LVL11:
  99:DebugMessages.c ****     } while(response == 0);
 118              		.loc 1 99 0 discriminator 1
 119 000c 0028     		cmp	r0, #0
 120 000e FAD0     		beq	.L6
 100:DebugMessages.c ****     
 101:DebugMessages.c ****     buffer[0] = response;
 121              		.loc 1 101 0
 122 0010 2870     		strb	r0, [r5]
  94:DebugMessages.c ****     uint8_t response;
 123              		.loc 1 94 0
 124 0012 0124     		movs	r4, #1
 102:DebugMessages.c ****     
 103:DebugMessages.c ****     while(response != '\r' && index < size - 1){
ARM GAS  C:\Users\mewin\AppData\Local\Temp\ccu9q5Cc.s 			page 5


 125              		.loc 1 103 0
 126 0014 07E0     		b	.L7
 127              	.LVL12:
 128              	.L8:
 104:DebugMessages.c ****         do { 
 105:DebugMessages.c ****             response = UART_UartGetChar();
 129              		.loc 1 105 0 discriminator 1
 130 0016 FFF7FEFF 		bl	UART_UartGetChar
 131              	.LVL13:
 132 001a C0B2     		uxtb	r0, r0
 133              	.LVL14:
 106:DebugMessages.c ****         } while(response == 0);
 134              		.loc 1 106 0 discriminator 1
 135 001c 0028     		cmp	r0, #0
 136 001e FAD0     		beq	.L8
 107:DebugMessages.c ****         buffer[index] = response;
 137              		.loc 1 107 0
 138 0020 2855     		strb	r0, [r5, r4]
 108:DebugMessages.c ****         index++;
 139              		.loc 1 108 0
 140 0022 0134     		adds	r4, r4, #1
 141              	.LVL15:
 142 0024 E4B2     		uxtb	r4, r4
 143              	.LVL16:
 144              	.L7:
 103:DebugMessages.c ****         do { 
 145              		.loc 1 103 0
 146 0026 0D28     		cmp	r0, #13
 147 0028 02D0     		beq	.L9
 103:DebugMessages.c ****         do { 
 148              		.loc 1 103 0 is_stmt 0 discriminator 1
 149 002a 731E     		subs	r3, r6, #1
 150 002c 9C42     		cmp	r4, r3
 151 002e F2DB     		blt	.L8
 152              	.L9:
 109:DebugMessages.c ****     }
 110:DebugMessages.c ****     buffer[index] = 0; 
 153              		.loc 1 110 0 is_stmt 1
 154 0030 2C19     		adds	r4, r5, r4
 155              	.LVL17:
 156 0032 0023     		movs	r3, #0
 157 0034 2370     		strb	r3, [r4]
 111:DebugMessages.c **** }
 158              		.loc 1 111 0
 159              		@ sp needed
 160              	.LVL18:
 161 0036 70BD     		pop	{r4, r5, r6, pc}
 162              		.cfi_endproc
 163              	.LFE40:
 164              		.size	StoreUARTBufferToArray, .-StoreUARTBufferToArray
 165              		.section	.text.ReadNumberFromUART,"ax",%progbits
 166              		.align	2
 167              		.global	ReadNumberFromUART
 168              		.code	16
 169              		.thumb_func
 170              		.type	ReadNumberFromUART, %function
 171              	ReadNumberFromUART:
ARM GAS  C:\Users\mewin\AppData\Local\Temp\ccu9q5Cc.s 			page 6


 172              	.LFB39:
  86:DebugMessages.c ****     char buffer[100];
 173              		.loc 1 86 0
 174              		.cfi_startproc
 175              		@ args = 0, pretend = 0, frame = 104
 176              		@ frame_needed = 0, uses_anonymous_args = 0
 177 0000 00B5     		push	{lr}
 178              		.cfi_def_cfa_offset 4
 179              		.cfi_offset 14, -4
 180 0002 9BB0     		sub	sp, sp, #108
 181              		.cfi_def_cfa_offset 112
 182              	.LVL19:
  89:DebugMessages.c ****     return atoi(buffer);
 183              		.loc 1 89 0
 184 0004 6421     		movs	r1, #100
 185 0006 01A8     		add	r0, sp, #4
 186 0008 FFF7FEFF 		bl	StoreUARTBufferToArray
 187              	.LVL20:
  90:DebugMessages.c **** }
 188              		.loc 1 90 0
 189 000c 01A8     		add	r0, sp, #4
 190 000e FFF7FEFF 		bl	atoi
 191              	.LVL21:
  91:DebugMessages.c **** 
 192              		.loc 1 91 0
 193 0012 1BB0     		add	sp, sp, #108
 194              		@ sp needed
 195 0014 00BD     		pop	{pc}
 196              		.cfi_endproc
 197              	.LFE39:
 198              		.size	ReadNumberFromUART, .-ReadNumberFromUART
 199 0016 C046     		.section	.text.SetTargetSerial,"ax",%progbits
 200              		.align	2
 201              		.global	SetTargetSerial
 202              		.code	16
 203              		.thumb_func
 204              		.type	SetTargetSerial, %function
 205              	SetTargetSerial:
 206              	.LFB37:
  64:DebugMessages.c ****     UART_UartPutString("\r\n-------------------------SERIAL VALUE-------------------------");
 207              		.loc 1 64 0
 208              		.cfi_startproc
 209              		@ args = 0, pretend = 0, frame = 0
 210              		@ frame_needed = 0, uses_anonymous_args = 0
 211 0000 70B5     		push	{r4, r5, r6, lr}
 212              		.cfi_def_cfa_offset 16
 213              		.cfi_offset 4, -16
 214              		.cfi_offset 5, -12
 215              		.cfi_offset 6, -8
 216              		.cfi_offset 14, -4
  65:DebugMessages.c ****     UART_UartPutString("\r\nSerial are values between 1-63. 0 is broadcast and is disabled for saft
 217              		.loc 1 65 0
 218 0002 0C48     		ldr	r0, .L13
 219 0004 FFF7FEFF 		bl	UART_UartPutString
 220              	.LVL22:
  66:DebugMessages.c ****     uint8_t serial = 0;   
 221              		.loc 1 66 0
ARM GAS  C:\Users\mewin\AppData\Local\Temp\ccu9q5Cc.s 			page 7


 222 0008 0B48     		ldr	r0, .L13+4
 223 000a FFF7FEFF 		bl	UART_UartPutString
 224              	.LVL23:
 225              	.L12:
  69:DebugMessages.c ****     } while (serial <= 0 || serial > 63);
 226              		.loc 1 69 0 discriminator 1
 227 000e FFF7FEFF 		bl	ReadNumberFromUART
 228              	.LVL24:
 229 0012 C4B2     		uxtb	r4, r0
 230              	.LVL25:
  70:DebugMessages.c ****     sprintf(txData, "Serial Value: %d\r\n", serial);
 231              		.loc 1 70 0 discriminator 1
 232 0014 631E     		subs	r3, r4, #1
 233 0016 DBB2     		uxtb	r3, r3
 234 0018 3E2B     		cmp	r3, #62
 235 001a F8D8     		bhi	.L12
  71:DebugMessages.c ****     UART_UartPutString(txData);
 236              		.loc 1 71 0
 237 001c FF22     		movs	r2, #255
 238 001e 0240     		ands	r2, r0
 239 0020 064D     		ldr	r5, .L13+8
 240 0022 0749     		ldr	r1, .L13+12
 241 0024 2800     		movs	r0, r5
 242 0026 FFF7FEFF 		bl	sprintf
 243              	.LVL26:
  72:DebugMessages.c ****     return serial;
 244              		.loc 1 72 0
 245 002a 2800     		movs	r0, r5
 246 002c FFF7FEFF 		bl	UART_UartPutString
 247              	.LVL27:
  74:DebugMessages.c **** 
 248              		.loc 1 74 0
 249 0030 2000     		movs	r0, r4
 250              		@ sp needed
 251              	.LVL28:
 252 0032 70BD     		pop	{r4, r5, r6, pc}
 253              	.L14:
 254              		.align	2
 255              	.L13:
 256 0034 30010000 		.word	.LC12
 257 0038 74010000 		.word	.LC14
 258 003c 00000000 		.word	txData
 259 0040 CC010000 		.word	.LC16
 260              		.cfi_endproc
 261              	.LFE37:
 262              		.size	SetTargetSerial, .-SetTargetSerial
 263              		.section	.text.SetMotorPWM,"ax",%progbits
 264              		.align	2
 265              		.global	SetMotorPWM
 266              		.code	16
 267              		.thumb_func
 268              		.type	SetMotorPWM, %function
 269              	SetMotorPWM:
 270              	.LFB38:
  76:DebugMessages.c ****     UART_SpiUartClearRxBuffer();
 271              		.loc 1 76 0
 272              		.cfi_startproc
ARM GAS  C:\Users\mewin\AppData\Local\Temp\ccu9q5Cc.s 			page 8


 273              		@ args = 0, pretend = 0, frame = 0
 274              		@ frame_needed = 0, uses_anonymous_args = 0
 275 0000 70B5     		push	{r4, r5, r6, lr}
 276              		.cfi_def_cfa_offset 16
 277              		.cfi_offset 4, -16
 278              		.cfi_offset 5, -12
 279              		.cfi_offset 6, -8
 280              		.cfi_offset 14, -4
  77:DebugMessages.c ****     UART_UartPutString("\r\n-------------------------PWM VALUE-------------------------");
 281              		.loc 1 77 0
 282 0002 FFF7FEFF 		bl	UART_SpiUartClearRxBuffer
 283              	.LVL29:
  78:DebugMessages.c ****     UART_UartPutString("\r\nSet a PWM value between  −32,768 and 32,767\r\nValue: ");
 284              		.loc 1 78 0
 285 0006 0A48     		ldr	r0, .L16
 286 0008 FFF7FEFF 		bl	UART_UartPutString
 287              	.LVL30:
  79:DebugMessages.c ****     int32_t result = ReadNumberFromUART();
 288              		.loc 1 79 0
 289 000c 0948     		ldr	r0, .L16+4
 290 000e FFF7FEFF 		bl	UART_UartPutString
 291              	.LVL31:
  80:DebugMessages.c ****     sprintf(txData, "PWM Value: %d\r\n", result);
 292              		.loc 1 80 0
 293 0012 FFF7FEFF 		bl	ReadNumberFromUART
 294              	.LVL32:
 295 0016 0400     		movs	r4, r0
 296              	.LVL33:
  81:DebugMessages.c ****     UART_UartPutString(txData);
 297              		.loc 1 81 0
 298 0018 074D     		ldr	r5, .L16+8
 299 001a 0200     		movs	r2, r0
 300 001c 0749     		ldr	r1, .L16+12
 301 001e 2800     		movs	r0, r5
 302              	.LVL34:
 303 0020 FFF7FEFF 		bl	sprintf
 304              	.LVL35:
  82:DebugMessages.c ****     return(result);
 305              		.loc 1 82 0
 306 0024 2800     		movs	r0, r5
 307 0026 FFF7FEFF 		bl	UART_UartPutString
 308              	.LVL36:
  84:DebugMessages.c **** 
 309              		.loc 1 84 0
 310 002a 2000     		movs	r0, r4
 311              		@ sp needed
 312              	.LVL37:
 313 002c 70BD     		pop	{r4, r5, r6, pc}
 314              	.L17:
 315 002e C046     		.align	2
 316              	.L16:
 317 0030 E0010000 		.word	.LC19
 318 0034 20020000 		.word	.LC21
 319 0038 00000000 		.word	txData
 320 003c 5C020000 		.word	.LC23
 321              		.cfi_endproc
 322              	.LFE38:
ARM GAS  C:\Users\mewin\AppData\Local\Temp\ccu9q5Cc.s 			page 9


 323              		.size	SetMotorPWM, .-SetMotorPWM
 324              		.section	.text.NeedToImplementMessage,"ax",%progbits
 325              		.align	2
 326              		.global	NeedToImplementMessage
 327              		.code	16
 328              		.thumb_func
 329              		.type	NeedToImplementMessage, %function
 330              	NeedToImplementMessage:
 331              	.LFB41:
 112:DebugMessages.c **** 
 113:DebugMessages.c **** uint8_t NeedToImplementMessage(void){
 332              		.loc 1 113 0
 333              		.cfi_startproc
 334              		@ args = 0, pretend = 0, frame = 0
 335              		@ frame_needed = 0, uses_anonymous_args = 0
 336 0000 10B5     		push	{r4, lr}
 337              		.cfi_def_cfa_offset 8
 338              		.cfi_offset 4, -8
 339              		.cfi_offset 14, -4
 114:DebugMessages.c ****     UART_UartPutString("\r\n---NOT IMPLEMENTED YET---\r\n");
 340              		.loc 1 114 0
 341 0002 0248     		ldr	r0, .L19
 342 0004 FFF7FEFF 		bl	UART_UartPutString
 343              	.LVL38:
 115:DebugMessages.c ****     return 0xFF;
 116:DebugMessages.c ****     
 117:DebugMessages.c **** }
 344              		.loc 1 117 0
 345 0008 FF20     		movs	r0, #255
 346              		@ sp needed
 347 000a 10BD     		pop	{r4, pc}
 348              	.L20:
 349              		.align	2
 350              	.L19:
 351 000c 6C020000 		.word	.LC26
 352              		.cfi_endproc
 353              	.LFE41:
 354              		.size	NeedToImplementMessage, .-NeedToImplementMessage
 355              		.section	.text.SelectModeMessage,"ax",%progbits
 356              		.align	2
 357              		.global	SelectModeMessage
 358              		.code	16
 359              		.thumb_func
 360              		.type	SelectModeMessage, %function
 361              	SelectModeMessage:
 362              	.LFB36:
  33:DebugMessages.c ****     UART_UartPutString("\r\n-------------------------MODE SEL-------------------------");
 363              		.loc 1 33 0
 364              		.cfi_startproc
 365              		@ args = 0, pretend = 0, frame = 0
 366              		@ frame_needed = 0, uses_anonymous_args = 0
 367 0000 10B5     		push	{r4, lr}
 368              		.cfi_def_cfa_offset 8
 369              		.cfi_offset 4, -8
 370              		.cfi_offset 14, -4
  34:DebugMessages.c ****     UART_UartPutString("\r\nSelect a mode(type a number): \r\n 0: PWM \r\n 1: PID \r\nMode: ");
 371              		.loc 1 34 0
ARM GAS  C:\Users\mewin\AppData\Local\Temp\ccu9q5Cc.s 			page 10


 372 0002 1C48     		ldr	r0, .L31
 373 0004 FFF7FEFF 		bl	UART_UartPutString
 374              	.LVL39:
  35:DebugMessages.c ****     uint8_t response = UART_UartGetChar();
 375              		.loc 1 35 0
 376 0008 1B48     		ldr	r0, .L31+4
 377 000a FFF7FEFF 		bl	UART_UartPutString
 378              	.LVL40:
  36:DebugMessages.c ****     while (response < 48 + 0 || response > 48 + 1) {
 379              		.loc 1 36 0
 380 000e FFF7FEFF 		bl	UART_UartGetChar
 381              	.LVL41:
 382 0012 C0B2     		uxtb	r0, r0
 383              	.LVL42:
  37:DebugMessages.c ****         response = UART_UartGetChar();
 384              		.loc 1 37 0
 385 0014 02E0     		b	.L22
 386              	.L23:
  38:DebugMessages.c ****     }
 387              		.loc 1 38 0
 388 0016 FFF7FEFF 		bl	UART_UartGetChar
 389              	.LVL43:
 390 001a C0B2     		uxtb	r0, r0
 391              	.LVL44:
 392              	.L22:
  37:DebugMessages.c ****         response = UART_UartGetChar();
 393              		.loc 1 37 0
 394 001c 0300     		movs	r3, r0
 395 001e 303B     		subs	r3, r3, #48
 396 0020 DBB2     		uxtb	r3, r3
 397 0022 012B     		cmp	r3, #1
 398 0024 F7D8     		bhi	.L23
  40:DebugMessages.c ****         case(48):
 399              		.loc 1 40 0
 400 0026 3128     		cmp	r0, #49
 401 0028 0DD0     		beq	.L25
 402 002a 02D8     		bhi	.L26
 403 002c 3028     		cmp	r0, #48
 404 002e 05D0     		beq	.L27
 405 0030 1BE0     		b	.L24
 406              	.L26:
 407 0032 3228     		cmp	r0, #50
 408 0034 0DD0     		beq	.L28
 409 0036 3328     		cmp	r0, #51
 410 0038 11D0     		beq	.L29
 411 003a 16E0     		b	.L24
 412              	.L27:
  42:DebugMessages.c ****             return 0;
 413              		.loc 1 42 0
 414 003c 0F48     		ldr	r0, .L31+8
 415              	.LVL45:
 416 003e FFF7FEFF 		bl	UART_UartPutString
 417              	.LVL46:
  43:DebugMessages.c ****             break;
 418              		.loc 1 43 0
 419 0042 0020     		movs	r0, #0
 420 0044 15E0     		b	.L30
ARM GAS  C:\Users\mewin\AppData\Local\Temp\ccu9q5Cc.s 			page 11


 421              	.LVL47:
 422              	.L25:
  46:DebugMessages.c ****             return(NeedToImplementMessage());
 423              		.loc 1 46 0
 424 0046 0E48     		ldr	r0, .L31+12
 425              	.LVL48:
 426 0048 FFF7FEFF 		bl	UART_UartPutString
 427              	.LVL49:
  47:DebugMessages.c ****             break;
 428              		.loc 1 47 0
 429 004c FFF7FEFF 		bl	NeedToImplementMessage
 430              	.LVL50:
 431 0050 0FE0     		b	.L30
 432              	.LVL51:
 433              	.L28:
  50:DebugMessages.c ****             return(NeedToImplementMessage());
 434              		.loc 1 50 0
 435 0052 0C48     		ldr	r0, .L31+16
 436              	.LVL52:
 437 0054 FFF7FEFF 		bl	UART_UartPutString
 438              	.LVL53:
  51:DebugMessages.c ****             break;
 439              		.loc 1 51 0
 440 0058 FFF7FEFF 		bl	NeedToImplementMessage
 441              	.LVL54:
 442 005c 09E0     		b	.L30
 443              	.LVL55:
 444              	.L29:
  54:DebugMessages.c ****             return(NeedToImplementMessage());
 445              		.loc 1 54 0
 446 005e 0A48     		ldr	r0, .L31+20
 447              	.LVL56:
 448 0060 FFF7FEFF 		bl	UART_UartPutString
 449              	.LVL57:
  55:DebugMessages.c ****             break;
 450              		.loc 1 55 0
 451 0064 FFF7FEFF 		bl	NeedToImplementMessage
 452              	.LVL58:
 453 0068 03E0     		b	.L30
 454              	.LVL59:
 455              	.L24:
  58:DebugMessages.c ****             return(0xFF);
 456              		.loc 1 58 0
 457 006a 0848     		ldr	r0, .L31+24
 458              	.LVL60:
 459 006c FFF7FEFF 		bl	UART_UartPutString
 460              	.LVL61:
  59:DebugMessages.c ****             break;
 461              		.loc 1 59 0
 462 0070 FF20     		movs	r0, #255
 463              	.L30:
  62:DebugMessages.c **** 
 464              		.loc 1 62 0
 465              		@ sp needed
 466 0072 10BD     		pop	{r4, pc}
 467              	.L32:
 468              		.align	2
ARM GAS  C:\Users\mewin\AppData\Local\Temp\ccu9q5Cc.s 			page 12


 469              	.L31:
 470 0074 8C020000 		.word	.LC28
 471 0078 CC020000 		.word	.LC30
 472 007c 0C030000 		.word	.LC32
 473 0080 24030000 		.word	.LC34
 474 0084 3C030000 		.word	.LC36
 475 0088 58030000 		.word	.LC38
 476 008c 74030000 		.word	.LC40
 477              		.cfi_endproc
 478              	.LFE36:
 479              		.size	SelectModeMessage, .-SelectModeMessage
 480              		.section	.rodata.str1.4,"aMS",%progbits,1
 481              		.align	2
 482              	.LC0:
 483 0000 0D0A2D2D 		.ascii	"\015\012-------------------------Reset-------------"
 483      2D2D2D2D 
 483      2D2D2D2D 
 483      2D2D2D2D 
 483      2D2D2D2D 
 484 002d 2D2D2D2D 		.ascii	"------------\000"
 484      2D2D2D2D 
 484      2D2D2D2D 
 484      00
 485 003a 0000     		.space	2
 486              	.LC3:
 487 003c 0D0A0D0A 		.ascii	"\015\012\015\012Addr: %x \015\012\000"
 487      41646472 
 487      3A202578 
 487      200D0A00 
 488              	.LC6:
 489 004c 0D0A5765 		.ascii	"\015\012Welcome to Motor CAN Tester press enter to "
 489      6C636F6D 
 489      6520746F 
 489      204D6F74 
 489      6F722043 
 490 0079 636F6E74 		.ascii	"continue \015\012\000"
 490      696E7565 
 490      200D0A00 
 491 0085 000000   		.space	3
 492              	.LC8:
 493 0088 0D0A2D2D 		.ascii	"\015\012-------------------------WARNING-----------"
 493      2D2D2D2D 
 493      2D2D2D2D 
 493      2D2D2D2D 
 493      2D2D2D2D 
 494 00b5 2D2D2D2D 		.ascii	"--------------\000"
 494      2D2D2D2D 
 494      2D2D2D2D 
 494      2D2D00
 495              	.LC10:
 496 00c4 0D0A4D61 		.ascii	"\015\012Make Sure the motors CAN MOVE FREELY. \015\012"
 496      6B652053 
 496      75726520 
 496      74686520 
 496      6D6F746F 
 497 00ee 42652070 		.ascii	"Be prepared to disconnect power from the system at "
 497      72657061 
ARM GAS  C:\Users\mewin\AppData\Local\Temp\ccu9q5Cc.s 			page 13


 497      72656420 
 497      746F2064 
 497      6973636F 
 498 0121 616E7920 		.ascii	"any point\015\012\000"
 498      706F696E 
 498      740D0A00 
 499 012d 000000   		.space	3
 500              	.LC12:
 501 0130 0D0A2D2D 		.ascii	"\015\012-------------------------SERIAL VALUE------"
 501      2D2D2D2D 
 501      2D2D2D2D 
 501      2D2D2D2D 
 501      2D2D2D2D 
 502 015d 2D2D2D2D 		.ascii	"-------------------\000"
 502      2D2D2D2D 
 502      2D2D2D2D 
 502      2D2D2D2D 
 502      2D2D2D00 
 503 0171 000000   		.space	3
 504              	.LC14:
 505 0174 0D0A5365 		.ascii	"\015\012Serial are values between 1-63. 0 is broadc"
 505      7269616C 
 505      20617265 
 505      2076616C 
 505      75657320 
 506 01a1 61737420 		.ascii	"ast and is disabled for saftey \015\012Value: \000"
 506      616E6420 
 506      69732064 
 506      69736162 
 506      6C656420 
 507 01ca 0000     		.space	2
 508              	.LC16:
 509 01cc 53657269 		.ascii	"Serial Value: %d\015\012\000"
 509      616C2056 
 509      616C7565 
 509      3A202564 
 509      0D0A00
 510 01df 00       		.space	1
 511              	.LC19:
 512 01e0 0D0A2D2D 		.ascii	"\015\012-------------------------PWM VALUE---------"
 512      2D2D2D2D 
 512      2D2D2D2D 
 512      2D2D2D2D 
 512      2D2D2D2D 
 513 020d 2D2D2D2D 		.ascii	"----------------\000"
 513      2D2D2D2D 
 513      2D2D2D2D 
 513      2D2D2D2D 
 513      00
 514 021e 0000     		.space	2
 515              	.LC21:
 516 0220 0D0A5365 		.ascii	"\015\012Set a PWM value between  \342\210\22232,768"
 516      74206120 
 516      50574D20 
 516      76616C75 
 516      65206265 
 517 0244 20616E64 		.ascii	" and 32,767\015\012Value: \000"
ARM GAS  C:\Users\mewin\AppData\Local\Temp\ccu9q5Cc.s 			page 14


 517      2033322C 
 517      3736370D 
 517      0A56616C 
 517      75653A20 
 518 0259 000000   		.space	3
 519              	.LC23:
 520 025c 50574D20 		.ascii	"PWM Value: %d\015\012\000"
 520      56616C75 
 520      653A2025 
 520      640D0A00 
 521              	.LC26:
 522 026c 0D0A2D2D 		.ascii	"\015\012---NOT IMPLEMENTED YET---\015\012\000"
 522      2D4E4F54 
 522      20494D50 
 522      4C454D45 
 522      4E544544 
 523 028a 0000     		.space	2
 524              	.LC28:
 525 028c 0D0A2D2D 		.ascii	"\015\012-------------------------MODE SEL----------"
 525      2D2D2D2D 
 525      2D2D2D2D 
 525      2D2D2D2D 
 525      2D2D2D2D 
 526 02b9 2D2D2D2D 		.ascii	"---------------\000"
 526      2D2D2D2D 
 526      2D2D2D2D 
 526      2D2D2D00 
 527 02c9 000000   		.space	3
 528              	.LC30:
 529 02cc 0D0A5365 		.ascii	"\015\012Select a mode(type a number): \015\012 0: P"
 529      6C656374 
 529      2061206D 
 529      6F646528 
 529      74797065 
 530 02f3 574D200D 		.ascii	"WM \015\012 1: PID \015\012Mode: \000"
 530      0A20313A 
 530      20504944 
 530      200D0A4D 
 530      6F64653A 
 531 0309 000000   		.space	3
 532              	.LC32:
 533 030c 0D0A5057 		.ascii	"\015\012PWM Mode Selected\015\012\000"
 533      4D204D6F 
 533      64652053 
 533      656C6563 
 533      7465640D 
 534 0322 0000     		.space	2
 535              	.LC34:
 536 0324 0D0A5049 		.ascii	"\015\012PID Mode Selected\015\012\000"
 536      44204D6F 
 536      64652053 
 536      656C6563 
 536      7465640D 
 537 033a 0000     		.space	2
 538              	.LC36:
 539 033c 0D0A4341 		.ascii	"\015\012CAN SEND Mode Selected\015\012\000"
 539      4E205345 
ARM GAS  C:\Users\mewin\AppData\Local\Temp\ccu9q5Cc.s 			page 15


 539      4E44204D 
 539      6F646520 
 539      53656C65 
 540 0357 00       		.space	1
 541              	.LC38:
 542 0358 0D0A4341 		.ascii	"\015\012CAN READ Mode Selected\015\012\000"
 542      4E205245 
 542      4144204D 
 542      6F646520 
 542      53656C65 
 543 0373 00       		.space	1
 544              	.LC40:
 545 0374 0D0A4552 		.ascii	"\015\012ERROR SENDING BACK TO MODE SELECT\015\012\000"
 545      524F5220 
 545      53454E44 
 545      494E4720 
 545      4241434B 
 546              		.text
 547              	.Letext0:
 548              		.file 2 "c:\\program files (x86)\\cypress\\psoc creator\\4.4\\psoc creator\\import\\gnu\\arm\\5.4.
 549              		.file 3 "c:\\program files (x86)\\cypress\\psoc creator\\4.4\\psoc creator\\import\\gnu\\arm\\5.4.
 550              		.file 4 "Generated_Source\\PSoC4/cytypes.h"
 551              		.file 5 "Generated_Source\\PSoC4/UART_SPI_UART.h"
 552              		.file 6 "c:\\program files (x86)\\cypress\\psoc creator\\4.4\\psoc creator\\import\\gnu\\arm\\5.4.
 553              		.file 7 "c:\\program files (x86)\\cypress\\psoc creator\\4.4\\psoc creator\\import\\gnu\\arm\\5.4.