ARM GAS  C:\Users\mewin\AppData\Local\Temp\cccmgCtR.s 			page 1


   1              		.syntax unified
   2              		.cpu cortex-m0
   3              		.fpu softvfp
   4              		.eabi_attribute 20, 1
   5              		.eabi_attribute 21, 1
   6              		.eabi_attribute 23, 3
   7              		.eabi_attribute 24, 1
   8              		.eabi_attribute 25, 1
   9              		.eabi_attribute 26, 1
  10              		.eabi_attribute 30, 1
  11              		.eabi_attribute 34, 0
  12              		.eabi_attribute 18, 4
  13              		.thumb
  14              		.syntax unified
  15              		.file	"main.c"
  16              		.text
  17              	.Ltext0:
  18              		.cfi_sections	.debug_frame
  19              		.section	.text.Period_Reset_Handler,"ax",%progbits
  20              		.align	2
  21              		.global	Period_Reset_Handler
  22              		.code	16
  23              		.thumb_func
  24              		.type	Period_Reset_Handler, %function
  25              	Period_Reset_Handler:
  26              	.LFB35:
  27              		.file 1 "main.c"
   1:main.c        **** /* ========================================
   2:main.c        ****  *
   3:main.c        ****  * Copyright HUSKY ROBOTICS, OLIVER HUANG
   4:main.c        ****  * All Rights Reserved
   5:main.c        ****  * UNPUBLISHED, LICENSED SOFTWARE.
   6:main.c        ****  *
   7:main.c        ****  * CONFIDENTIAL AND PROPRIETARY INFORMATION
   8:main.c        ****  * WHICH IS THE PROPERTY OF Husky Robotics.
   9:main.c        ****  *
  10:main.c        ****  * ========================================
  11:main.c        **** */
  12:main.c        **** 
  13:main.c        **** // main.c
  14:main.c        **** // Swerve Motor Board
  15:main.c        **** 
  16:main.c        **** //#include <project.h>
  17:main.c        **** // #include "../CANLib/CANLibrary.h"
  18:main.c        **** 
  19:main.c        **** #include <stdio.h>
  20:main.c        **** #include <stdint.h>
  21:main.c        **** 
  22:main.c        **** #include "main.h"
  23:main.c        **** #include "Motor_Unit_Debug.h"
  24:main.c        **** #include "cyapicallbacks.h"
  25:main.c        **** #include "MotorDrive.h"
  26:main.c        **** #include "Motor_Unit_CAN.h"
  27:main.c        **** #include "Motor_Unit_FSM.h"
  28:main.c        **** #include "PositionPID.h"
  29:main.c        **** 
  30:main.c        **** #ifdef RGB_LED_ARRAY
ARM GAS  C:\Users\mewin\AppData\Local\Temp\cccmgCtR.s 			page 2


  31:main.c        **** #include "LED_Array.h"
  32:main.c        **** extern const uint32 StripLights_CLUT[ ];
  33:main.c        **** #endif
  34:main.c        **** 
  35:main.c        **** 
  36:main.c        **** //LED
  37:main.c        **** uint8_t CAN_time_LED = 0;
  38:main.c        **** uint8_t ERRORTimeLED = 0;
  39:main.c        **** 
  40:main.c        **** int32_t millidegreeTarget_M1 = 0;   //useless (for 2023)
  41:main.c        **** int32_t millidegreeTarget_M2 = 0;
  42:main.c        **** 
  43:main.c        **** //Uart variables
  44:main.c        **** char txData[TX_DATA_SIZE];
  45:main.c        **** 
  46:main.c        **** //drive varaible
  47:main.c        **** int16 nextPWM_M1 = 0;
  48:main.c        **** int16 nextPWM_M2 = 0;
  49:main.c        **** extern uint8 invalidate;
  50:main.c        **** uint8_t ignoreLimSw_M1 = 0; 
  51:main.c        **** uint8_t ignoreLimSw_M2 = 0;
  52:main.c        **** uint8_t encoderTimeOut = 0;
  53:main.c        **** 
  54:main.c        **** uint8 address = 0;
  55:main.c        **** 
  56:main.c        **** //Status and Data Structs
  57:main.c        **** volatile uint8 drive = 0;
  58:main.c        **** uint8_t CAN_check_delay = 0;
  59:main.c        **** CANPacket can_recieve;
  60:main.c        **** CANPacket can_send;
  61:main.c        **** 
  62:main.c        **** //stops motor every 20s or so if no new packet was received. software might want this removed
  63:main.c        **** CY_ISR(Period_Reset_Handler) {
  28              		.loc 1 63 0
  29              		.cfi_startproc
  30              		@ args = 0, pretend = 0, frame = 0
  31              		@ frame_needed = 0, uses_anonymous_args = 0
  32 0000 10B5     		push	{r4, lr}
  33              		.cfi_def_cfa_offset 8
  34              		.cfi_offset 4, -8
  35              		.cfi_offset 14, -4
  64:main.c        ****     int timer = Timer_1_ReadStatusRegister();
  36              		.loc 1 64 0
  37 0002 FFF7FEFF 		bl	Timer_1_ReadStatusRegister
  38              	.LVL0:
  65:main.c        ****     invalidate++;
  39              		.loc 1 65 0
  40 0006 1E4A     		ldr	r2, .L6
  41 0008 1378     		ldrb	r3, [r2]
  42 000a 0133     		adds	r3, r3, #1
  43 000c 1370     		strb	r3, [r2]
  66:main.c        ****     CAN_time_LED++;
  44              		.loc 1 66 0
  45 000e 1D4B     		ldr	r3, .L6+4
  46 0010 1A78     		ldrb	r2, [r3]
  47 0012 0132     		adds	r2, r2, #1
  48 0014 1A70     		strb	r2, [r3]
ARM GAS  C:\Users\mewin\AppData\Local\Temp\cccmgCtR.s 			page 3


  67:main.c        ****     CAN_check_delay ++;
  49              		.loc 1 67 0
  50 0016 5A78     		ldrb	r2, [r3, #1]
  51 0018 0132     		adds	r2, r2, #1
  52 001a 5A70     		strb	r2, [r3, #1]
  68:main.c        ****     ERRORTimeLED++;
  53              		.loc 1 68 0
  54 001c 9A78     		ldrb	r2, [r3, #2]
  55 001e 0132     		adds	r2, r2, #1
  56 0020 9A70     		strb	r2, [r3, #2]
  69:main.c        ****     encoderTimeOut++;
  57              		.loc 1 69 0
  58 0022 DA78     		ldrb	r2, [r3, #3]
  59 0024 0132     		adds	r2, r2, #1
  60 0026 D2B2     		uxtb	r2, r2
  61 0028 DA70     		strb	r2, [r3, #3]
  70:main.c        ****     if(encoderTimeOut >= 2){
  62              		.loc 1 70 0
  63 002a 012A     		cmp	r2, #1
  64 002c 04D9     		bls	.L2
  71:main.c        ****         encoderTimeOut = 0;
  65              		.loc 1 71 0
  66 002e 0022     		movs	r2, #0
  67 0030 DA70     		strb	r2, [r3, #3]
  72:main.c        ****         SendEncoderData(&can_send);
  68              		.loc 1 72 0
  69 0032 1548     		ldr	r0, .L6+8
  70 0034 FFF7FEFF 		bl	SendEncoderData
  71              	.LVL1:
  72              	.L2:
  73:main.c        ****     }
  74:main.c        ****     if(invalidate >= 20){
  73              		.loc 1 74 0
  74 0038 114B     		ldr	r3, .L6
  75 003a 1B78     		ldrb	r3, [r3]
  76 003c 132B     		cmp	r3, #19
  77 003e 09D9     		bls	.L3
  75:main.c        ****         set_PWM_M1(0, 0, 0);    
  78              		.loc 1 75 0
  79 0040 0022     		movs	r2, #0
  80 0042 0021     		movs	r1, #0
  81 0044 0020     		movs	r0, #0
  82 0046 FFF7FEFF 		bl	set_PWM_M1
  83              	.LVL2:
  76:main.c        ****         set_PWM_M2(0, 0, 0);   
  84              		.loc 1 76 0
  85 004a 0022     		movs	r2, #0
  86 004c 0021     		movs	r1, #0
  87 004e 0020     		movs	r0, #0
  88 0050 FFF7FEFF 		bl	set_PWM_M2
  89              	.LVL3:
  90              	.L3:
  77:main.c        ****     }
  78:main.c        ****     if(ERRORTimeLED >= 3) {
  91              		.loc 1 78 0
  92 0054 0B4B     		ldr	r3, .L6+4
  93 0056 9B78     		ldrb	r3, [r3, #2]
ARM GAS  C:\Users\mewin\AppData\Local\Temp\cccmgCtR.s 			page 4


  94 0058 022B     		cmp	r3, #2
  95 005a 08D9     		bls	.L4
  79:main.c        ****         #ifdef ERROR_LED
  80:main.c        ****         LED_Error_Write(LED_OFF);
  96              		.loc 1 80 0
  97 005c 0120     		movs	r0, #1
  98 005e FFF7FEFF 		bl	LED_Error_Write
  99              	.LVL4:
  81:main.c        ****         #endif
  82:main.c        ****         #ifdef DEBUG_LED1   
  83:main.c        ****         LED_Debug1_Write(LED_OFF);
 100              		.loc 1 83 0
 101 0062 0120     		movs	r0, #1
 102 0064 FFF7FEFF 		bl	LED_Debug1_Write
 103              	.LVL5:
  84:main.c        ****         #endif
  85:main.c        ****         #ifdef DEBUG_LED2
  86:main.c        ****         LED_Debug2_Write(LED_OFF);
 104              		.loc 1 86 0
 105 0068 0120     		movs	r0, #1
 106 006a FFF7FEFF 		bl	LED_Debug2_Write
 107              	.LVL6:
 108              	.L4:
  87:main.c        ****         #endif
  88:main.c        ****     }
  89:main.c        ****     if(CAN_time_LED >= 3){
 109              		.loc 1 89 0
 110 006e 054B     		ldr	r3, .L6+4
 111 0070 1B78     		ldrb	r3, [r3]
 112 0072 022B     		cmp	r3, #2
 113 0074 02D9     		bls	.L1
  90:main.c        ****         #ifdef CAN_LED
  91:main.c        ****         LED_CAN_Write(LED_OFF);
 114              		.loc 1 91 0
 115 0076 0120     		movs	r0, #1
 116 0078 FFF7FEFF 		bl	LED_CAN_Write
 117              	.LVL7:
 118              	.L1:
  92:main.c        ****         #endif
  93:main.c        ****     }
  94:main.c        **** }
 119              		.loc 1 94 0
 120              		@ sp needed
 121 007c 10BD     		pop	{r4, pc}
 122              	.L7:
 123 007e C046     		.align	2
 124              	.L6:
 125 0080 00000000 		.word	invalidate
 126 0084 00000000 		.word	.LANCHOR0
 127 0088 00000000 		.word	can_send
 128              		.cfi_endproc
 129              	.LFE35:
 130              		.size	Period_Reset_Handler, .-Period_Reset_Handler
 131              		.section	.text.Pin_Limit_Handler,"ax",%progbits
 132              		.align	2
 133              		.global	Pin_Limit_Handler
 134              		.code	16
ARM GAS  C:\Users\mewin\AppData\Local\Temp\cccmgCtR.s 			page 5


 135              		.thumb_func
 136              		.type	Pin_Limit_Handler, %function
 137              	Pin_Limit_Handler:
 138              	.LFB36:
  95:main.c        ****  
  96:main.c        **** //only for rotation motor (inc) 
  97:main.c        **** //activates on 180 and -180 (two limit switches)
  98:main.c        **** CY_ISR(Pin_Limit_Handler){
 139              		.loc 1 98 0
 140              		.cfi_startproc
 141              		@ args = 0, pretend = 0, frame = 0
 142              		@ frame_needed = 0, uses_anonymous_args = 0
 143 0000 70B5     		push	{r4, r5, r6, lr}
 144              		.cfi_def_cfa_offset 16
 145              		.cfi_offset 4, -16
 146              		.cfi_offset 5, -12
 147              		.cfi_offset 6, -8
 148              		.cfi_offset 14, -4
  99:main.c        ****     #ifdef PRINT_LIMIT_SW_TRIGGER
 100:main.c        ****     sprintf(txData,"LimitSW triggerd Stat: %x \r\n", Status_Reg_Switches_Read() & 0b11);
 101:main.c        ****     UART_UartPutString(txData);
 102:main.c        ****     #endif
 103:main.c        ****     
 104:main.c        ****     set_PWM_M2(GetCurrentPWM_M2(), ignoreLimSw_M2, Status_Reg_Switches_Read());   //TODO: make sure
 149              		.loc 1 104 0
 150 0002 FFF7FEFF 		bl	GetCurrentPWM_M2
 151              	.LVL8:
 152 0006 0400     		movs	r4, r0
 153 0008 0B4B     		ldr	r3, .L9
 154 000a 1D79     		ldrb	r5, [r3, #4]
 155 000c FFF7FEFF 		bl	Status_Reg_Switches_Read
 156              	.LVL9:
 157 0010 0200     		movs	r2, r0
 158 0012 2900     		movs	r1, r5
 159 0014 2000     		movs	r0, r4
 160 0016 FFF7FEFF 		bl	set_PWM_M2
 161              	.LVL10:
 105:main.c        ****     
 106:main.c        ****     #ifdef CAN_TELEM_SEND
 107:main.c        ****     AssembleLimitSwitchAlertPacket(&can_send, DEVICE_GROUP_JETSON, 
 108:main.c        ****         DEVICE_SERIAL_JETSON, Status_Reg_Switches_Read() & 0b11);
 162              		.loc 1 108 0
 163 001a FFF7FEFF 		bl	Status_Reg_Switches_Read
 164              	.LVL11:
 107:main.c        ****         DEVICE_SERIAL_JETSON, Status_Reg_Switches_Read() & 0b11);
 165              		.loc 1 107 0
 166 001e 0323     		movs	r3, #3
 167 0020 0340     		ands	r3, r0
 168 0022 064C     		ldr	r4, .L9+4
 169 0024 0122     		movs	r2, #1
 170 0026 0221     		movs	r1, #2
 171 0028 2000     		movs	r0, r4
 172 002a FFF7FEFF 		bl	AssembleLimitSwitchAlertPacket
 173              	.LVL12:
 109:main.c        ****     SendCANPacket(&can_send);
 174              		.loc 1 109 0
 175 002e 2000     		movs	r0, r4
ARM GAS  C:\Users\mewin\AppData\Local\Temp\cccmgCtR.s 			page 6


 176 0030 FFF7FEFF 		bl	SendCANPacket
 177              	.LVL13:
 110:main.c        ****     #endif
 111:main.c        ****     //TODO: Select Which Encoder zeros
 112:main.c        ****     //QuadDec_SetCounter(0);
 113:main.c        **** }
 178              		.loc 1 113 0
 179              		@ sp needed
 180 0034 70BD     		pop	{r4, r5, r6, pc}
 181              	.L10:
 182 0036 C046     		.align	2
 183              	.L9:
 184 0038 00000000 		.word	.LANCHOR0
 185 003c 00000000 		.word	can_send
 186              		.cfi_endproc
 187              	.LFE36:
 188              		.size	Pin_Limit_Handler, .-Pin_Limit_Handler
 189              		.section	.text.PrintCanPacket,"ax",%progbits
 190              		.align	2
 191              		.global	PrintCanPacket
 192              		.code	16
 193              		.thumb_func
 194              		.type	PrintCanPacket, %function
 195              	PrintCanPacket:
 196              	.LFB39:
 114:main.c        **** 
 115:main.c        **** int main(void)
 116:main.c        **** { 
 117:main.c        ****     Initialize();
 118:main.c        ****     #ifdef RGB_LED_ARRAY
 119:main.c        ****     StripLights_DisplayClear(StripLights_BLACK);
 120:main.c        ****     #endif
 121:main.c        ****     
 122:main.c        ****     for(;;)
 123:main.c        ****     {
 124:main.c        ****         switch(GetState()) {
 125:main.c        ****             case(UNINIT):
 126:main.c        ****                 //idle animation
 127:main.c        ****                 SetStateTo(CHECK_CAN);
 128:main.c        ****                 break;
 129:main.c        ****             case(SET_PWM_M1):
 130:main.c        ****                 set_PWM_M1(nextPWM_M1, ignoreLimSw_M1, Status_Reg_Switches_Read());    //TODO: VERI
 131:main.c        ****                 SetStateTo(CHECK_CAN);
 132:main.c        ****                 break;
 133:main.c        ****             case(SET_PWM_M2):
 134:main.c        ****                 set_PWM_M2(nextPWM_M2, ignoreLimSw_M2, Status_Reg_Switches_Read());    //TODO: VERI
 135:main.c        ****                 SetStateTo(CHECK_CAN);
 136:main.c        ****                 break;
 137:main.c        ****             case(CALC_PID): //only applies to swivel
 138:main.c        ****                 SetPosition(millidegreeTarget_M2);   
 139:main.c        ****                 SetStateTo(CHECK_CAN);
 140:main.c        ****                 break;
 141:main.c        ****             case(QUEUE_ERROR):
 142:main.c        ****                 SetStateTo(CHECK_CAN);
 143:main.c        ****                 break;
 144:main.c        ****             case(CHECK_CAN):
 145:main.c        ****                 NextStateFromCAN(&can_recieve, &can_send);
ARM GAS  C:\Users\mewin\AppData\Local\Temp\cccmgCtR.s 			page 7


 146:main.c        ****                 #ifdef PRINT_CAN_PACKET
 147:main.c        ****                 PrintCanPacket(can_recieve);
 148:main.c        ****                 #endif
 149:main.c        ****                 break;
 150:main.c        ****             default:
 151:main.c        ****                 //Should Never Get Here
 152:main.c        ****                 //TODO: ERROR
 153:main.c        ****                 GotoUninitState();
 154:main.c        ****                 break;
 155:main.c        **** 
 156:main.c        ****         }
 157:main.c        ****         #ifdef PRINT_FSM_STATE_MODE
 158:main.c        ****         sprintf(txData, "Mode: %x State:%x \r\n", GetMode(), GetState());
 159:main.c        ****         UART_UartPutString(txData);
 160:main.c        ****         #endif
 161:main.c        ****         #ifdef PRINT_SET_PID_CONST
 162:main.c        ****         sprintf(txData, "P: %d I: %d D: %d PPJ: %d Ready: %d \r\n", GetkPosition(), GetkIntegral() 
 163:main.c        ****         ,GetkDerivative(), GetkPPJR(), PIDconstsSet());
 164:main.c        ****         UART_UartPutString(txData);
 165:main.c        ****         #endif
 166:main.c        ****         #ifdef PRINT_ENCODER_VALUE
 167:main.c        ****         sprintf(txData, "Encoder Value: %d  \r\n", QuadDec_GetCounter());
 168:main.c        ****         UART_UartPutString(txData);
 169:main.c        ****         #endif
 170:main.c        ****     }
 171:main.c        **** }
 172:main.c        ****  
 173:main.c        **** 
 174:main.c        **** //not initializing CAN with two motors correctly yet ok
 175:main.c        **** void Initialize(void) {
 176:main.c        ****     CyGlobalIntEnable; /* Enable global interrupts. LED arrays need this first */
 177:main.c        ****     
 178:main.c        ****     #ifdef RGB_LED_ARRAY
 179:main.c        ****     initalize_LEDs(LOW_LED_POWER);
 180:main.c        ****     #endif
 181:main.c        ****     
 182:main.c        ****     Status_Reg_Switches_InterruptEnable();
 183:main.c        ****     
 184:main.c        ****     //display Dip Status
 185:main.c        ****     address = getSerialAddress();   //address of drive motor. Swivel motor is this + 1
 186:main.c        ****     
 187:main.c        ****     #ifdef ENABLE_DEBUG_UART
 188:main.c        ****     UART_Start();
 189:main.c        ****     sprintf(txData, "Dip Addr: %x \r\n", address);
 190:main.c        ****     UART_UartPutString(txData);
 191:main.c        ****     #endif
 192:main.c        ****     
 193:main.c        ****     #ifdef ERROR_LED
 194:main.c        ****     LED_Error_Write(~(address >> 3 & 1));
 195:main.c        ****     #endif
 196:main.c        ****     #ifdef DEBUG_LED2
 197:main.c        ****     LED_Debug2_Write(~(address >> 2) & 1);
 198:main.c        ****     #endif
 199:main.c        ****     #ifdef DEBUG_LED1
 200:main.c        ****     LED_Debug1_Write(~(address >> 1) & 1);
 201:main.c        ****     #endif 
 202:main.c        ****     #ifdef CAN_LED
ARM GAS  C:\Users\mewin\AppData\Local\Temp\cccmgCtR.s 			page 8


 203:main.c        ****     LED_CAN_Write(~address & 1);
 204:main.c        ****     #endif
 205:main.c        ****     
 206:main.c        ****     InitCAN_swerve(0x4, (int)address, (int)address + 1); //group, drive, swivel
 207:main.c        ****     Timer_1_Start();
 208:main.c        ****     QuadDec_Start();
 209:main.c        ****     PWM_Motor1_Start();
 210:main.c        ****     PWM_Motor2_Start();
 211:main.c        ****     
 212:main.c        ****     isr_Limit_1_StartEx(Pin_Limit_Handler);
 213:main.c        ****     isr_period_StartEx(Period_Reset_Handler);
 214:main.c        **** }
 215:main.c        **** 
 216:main.c        **** 
 217:main.c        **** void PrintCanPacket(CANPacket receivedPacket){
 197              		.loc 1 217 0
 198              		.cfi_startproc
 199              		@ args = 0, pretend = 0, frame = 16
 200              		@ frame_needed = 0, uses_anonymous_args = 0
 201 0000 30B5     		push	{r4, r5, lr}
 202              		.cfi_def_cfa_offset 12
 203              		.cfi_offset 4, -12
 204              		.cfi_offset 5, -8
 205              		.cfi_offset 14, -4
 206 0002 87B0     		sub	sp, sp, #28
 207              		.cfi_def_cfa_offset 40
 208 0004 0390     		str	r0, [sp, #12]
 209 0006 0491     		str	r1, [sp, #16]
 210 0008 0592     		str	r2, [sp, #20]
 211              	.LVL14:
 212              	.LBB2:
 218:main.c        ****     for(int i = 0; i < receivedPacket.dlc; i++ ) {
 213              		.loc 1 218 0
 214 000a 0023     		movs	r3, #0
 215 000c 0EE0     		b	.L12
 216              	.LVL15:
 217              	.L13:
 219:main.c        ****         sprintf(txData,"Byte%d %x   ", i+1, receivedPacket.data[i]);
 218              		.loc 1 219 0 discriminator 3
 219 000e 5C1C     		adds	r4, r3, #1
 220 0010 03AA     		add	r2, sp, #12
 221 0012 9446     		mov	ip, r2
 222 0014 6344     		add	r3, r3, ip
 223              	.LVL16:
 224 0016 DB78     		ldrb	r3, [r3, #3]
 225 0018 104D     		ldr	r5, .L14
 226 001a 2200     		movs	r2, r4
 227 001c 1049     		ldr	r1, .L14+4
 228 001e 2800     		movs	r0, r5
 229 0020 FFF7FEFF 		bl	sprintf
 230              	.LVL17:
 220:main.c        ****         UART_UartPutString(txData);
 231              		.loc 1 220 0 discriminator 3
 232 0024 2800     		movs	r0, r5
 233 0026 FFF7FEFF 		bl	UART_UartPutString
 234              	.LVL18:
 218:main.c        ****     for(int i = 0; i < receivedPacket.dlc; i++ ) {
ARM GAS  C:\Users\mewin\AppData\Local\Temp\cccmgCtR.s 			page 9


 235              		.loc 1 218 0 discriminator 3
 236 002a 2300     		movs	r3, r4
 237              	.LVL19:
 238              	.L12:
 218:main.c        ****     for(int i = 0; i < receivedPacket.dlc; i++ ) {
 239              		.loc 1 218 0 is_stmt 0 discriminator 1
 240 002c 03AA     		add	r2, sp, #12
 241 002e 9278     		ldrb	r2, [r2, #2]
 242 0030 9342     		cmp	r3, r2
 243 0032 ECDB     		blt	.L13
 244              	.LBE2:
 221:main.c        ****     }
 222:main.c        **** 
 223:main.c        ****     sprintf(txData,"ID:%x %x %x\r\n",receivedPacket.id >> 10, 
 245              		.loc 1 223 0 is_stmt 1
 246 0034 03AB     		add	r3, sp, #12
 247              	.LVL20:
 248 0036 1988     		ldrh	r1, [r3]
 249 0038 8B09     		lsrs	r3, r1, #6
 250 003a 0F22     		movs	r2, #15
 251 003c 1340     		ands	r3, r2
 252 003e 8A0A     		lsrs	r2, r1, #10
 253 0040 064C     		ldr	r4, .L14
 254 0042 3F20     		movs	r0, #63
 255 0044 0140     		ands	r1, r0
 256 0046 0091     		str	r1, [sp]
 257 0048 0649     		ldr	r1, .L14+8
 258 004a 2000     		movs	r0, r4
 259 004c FFF7FEFF 		bl	sprintf
 260              	.LVL21:
 224:main.c        ****         (receivedPacket.id >> 6) & 0xF , receivedPacket.id & 0x3F);
 225:main.c        ****     UART_UartPutString(txData);
 261              		.loc 1 225 0
 262 0050 2000     		movs	r0, r4
 263 0052 FFF7FEFF 		bl	UART_UartPutString
 264              	.LVL22:
 226:main.c        **** }
 265              		.loc 1 226 0
 266 0056 07B0     		add	sp, sp, #28
 267              		@ sp needed
 268 0058 30BD     		pop	{r4, r5, pc}
 269              	.L15:
 270 005a C046     		.align	2
 271              	.L14:
 272 005c 00000000 		.word	txData
 273 0060 00000000 		.word	.LC5
 274 0064 10000000 		.word	.LC8
 275              		.cfi_endproc
 276              	.LFE39:
 277              		.size	PrintCanPacket, .-PrintCanPacket
 278              		.section	.text.ReadCAN,"ax",%progbits
 279              		.align	2
 280              		.global	ReadCAN
 281              		.code	16
 282              		.thumb_func
 283              		.type	ReadCAN, %function
 284              	ReadCAN:
ARM GAS  C:\Users\mewin\AppData\Local\Temp\cccmgCtR.s 			page 10


 285              	.LFB40:
 227:main.c        **** 
 228:main.c        **** uint16_t ReadCAN(CANPacket *receivedPacket){
 286              		.loc 1 228 0
 287              		.cfi_startproc
 288              		@ args = 0, pretend = 0, frame = 8
 289              		@ frame_needed = 0, uses_anonymous_args = 0
 290              	.LVL23:
 291 0000 10B5     		push	{r4, lr}
 292              		.cfi_def_cfa_offset 8
 293              		.cfi_offset 4, -8
 294              		.cfi_offset 14, -4
 295 0002 82B0     		sub	sp, sp, #8
 296              		.cfi_def_cfa_offset 16
 297 0004 0400     		movs	r4, r0
 229:main.c        ****     volatile int error = PollAndReceiveCANPacket(receivedPacket);
 298              		.loc 1 229 0
 299 0006 FFF7FEFF 		bl	PollAndReceiveCANPacket
 300              	.LVL24:
 301 000a 0190     		str	r0, [sp, #4]
 230:main.c        ****     if(!error){
 302              		.loc 1 230 0
 303 000c 019B     		ldr	r3, [sp, #4]
 304 000e 002B     		cmp	r3, #0
 305 0010 07D1     		bne	.L18
 231:main.c        ****         #ifdef CAN_LED
 232:main.c        ****         LED_CAN_Write(LED_ON);
 306              		.loc 1 232 0
 307 0012 0020     		movs	r0, #0
 308 0014 FFF7FEFF 		bl	LED_CAN_Write
 309              	.LVL25:
 233:main.c        ****         #endif
 234:main.c        ****         CAN_time_LED = 0;
 310              		.loc 1 234 0
 311 0018 0022     		movs	r2, #0
 312 001a 034B     		ldr	r3, .L19
 313 001c 1A70     		strb	r2, [r3]
 235:main.c        ****         return receivedPacket->data[0];
 314              		.loc 1 235 0
 315 001e E078     		ldrb	r0, [r4, #3]
 316 0020 00E0     		b	.L17
 317              	.L18:
 236:main.c        ****     }
 237:main.c        ****     return NO_NEW_CAN_PACKET; //Means no Packet
 318              		.loc 1 237 0
 319 0022 0248     		ldr	r0, .L19+4
 320              	.L17:
 238:main.c        **** }
 321              		.loc 1 238 0
 322 0024 02B0     		add	sp, sp, #8
 323              		@ sp needed
 324              	.LVL26:
 325 0026 10BD     		pop	{r4, pc}
 326              	.L20:
 327              		.align	2
 328              	.L19:
 329 0028 00000000 		.word	.LANCHOR0
ARM GAS  C:\Users\mewin\AppData\Local\Temp\cccmgCtR.s 			page 11


 330 002c FFFF0000 		.word	65535
 331              		.cfi_endproc
 332              	.LFE40:
 333              		.size	ReadCAN, .-ReadCAN
 334              		.section	.text.DisplayErrorCode,"ax",%progbits
 335              		.align	2
 336              		.global	DisplayErrorCode
 337              		.code	16
 338              		.thumb_func
 339              		.type	DisplayErrorCode, %function
 340              	DisplayErrorCode:
 341              	.LFB41:
 239:main.c        **** 
 240:main.c        **** void DisplayErrorCode(uint8_t code) {
 342              		.loc 1 240 0
 343              		.cfi_startproc
 344              		@ args = 0, pretend = 0, frame = 0
 345              		@ frame_needed = 0, uses_anonymous_args = 0
 346              	.LVL27:
 347 0000 10B5     		push	{r4, lr}
 348              		.cfi_def_cfa_offset 8
 349              		.cfi_offset 4, -8
 350              		.cfi_offset 14, -4
 351 0002 0400     		movs	r4, r0
 241:main.c        ****     
 242:main.c        ****     #ifdef ERROR_LED
 243:main.c        ****     LED_Error_Write(LED_OFF);
 352              		.loc 1 243 0
 353 0004 0120     		movs	r0, #1
 354              	.LVL28:
 355 0006 FFF7FEFF 		bl	LED_Error_Write
 356              	.LVL29:
 244:main.c        ****     #endif
 245:main.c        ****     #ifdef DEBUG_LED1   
 246:main.c        ****     LED_Debug1_Write(LED_OFF);
 357              		.loc 1 246 0
 358 000a 0120     		movs	r0, #1
 359 000c FFF7FEFF 		bl	LED_Debug1_Write
 360              	.LVL30:
 247:main.c        ****     #endif
 248:main.c        ****     #ifdef DEBUG_LED2
 249:main.c        ****     LED_Debug2_Write(LED_OFF);
 361              		.loc 1 249 0
 362 0010 0120     		movs	r0, #1
 363 0012 FFF7FEFF 		bl	LED_Debug2_Write
 364              	.LVL31:
 250:main.c        ****     #endif
 251:main.c        ****     
 252:main.c        ****     ERRORTimeLED = 0;
 365              		.loc 1 252 0
 366 0016 0022     		movs	r2, #0
 367 0018 0C4B     		ldr	r3, .L26
 368 001a 9A70     		strb	r2, [r3, #2]
 253:main.c        ****     LED_Error_Write(LED_ON);
 369              		.loc 1 253 0
 370 001c 0020     		movs	r0, #0
 371 001e FFF7FEFF 		bl	LED_Error_Write
ARM GAS  C:\Users\mewin\AppData\Local\Temp\cccmgCtR.s 			page 12


 372              	.LVL32:
 254:main.c        ****     
 255:main.c        ****     #ifdef PRINT_MOTOR_ERROR
 256:main.c        ****         //TODO: PRINT ERROR
 257:main.c        ****     #endif
 258:main.c        **** 
 259:main.c        ****     switch(code)
 373              		.loc 1 259 0
 374 0022 022C     		cmp	r4, #2
 375 0024 07D0     		beq	.L23
 376 0026 032C     		cmp	r4, #3
 377 0028 09D0     		beq	.L24
 378 002a 012C     		cmp	r4, #1
 379 002c 0DD1     		bne	.L21
 260:main.c        ****     {   
 261:main.c        ****         //case0: CAN Packet ERROR
 262:main.c        ****         case 1://Mode Error
 263:main.c        ****             #ifdef DEBUG_LED1
 264:main.c        ****             LED_Debug1_Write(LED_ON);
 380              		.loc 1 264 0
 381 002e 0020     		movs	r0, #0
 382 0030 FFF7FEFF 		bl	LED_Debug1_Write
 383              	.LVL33:
 265:main.c        ****             #endif
 266:main.c        ****             break;
 384              		.loc 1 266 0
 385 0034 09E0     		b	.L21
 386              	.L23:
 267:main.c        ****         case 2:
 268:main.c        ****             #ifdef DEBUG_LED2
 269:main.c        ****             LED_Debug2_Write(LED_ON);
 387              		.loc 1 269 0
 388 0036 0020     		movs	r0, #0
 389 0038 FFF7FEFF 		bl	LED_Debug2_Write
 390              	.LVL34:
 270:main.c        ****             #endif
 271:main.c        ****             break;
 391              		.loc 1 271 0
 392 003c 05E0     		b	.L21
 393              	.L24:
 272:main.c        ****         case 3:
 273:main.c        ****             #ifdef DEBUG_LED1
 274:main.c        ****             LED_Debug1_Write(LED_ON);
 394              		.loc 1 274 0
 395 003e 0020     		movs	r0, #0
 396 0040 FFF7FEFF 		bl	LED_Debug1_Write
 397              	.LVL35:
 275:main.c        ****             #endif
 276:main.c        ****             #ifdef DEBUG_LED2
 277:main.c        ****             LED_Debug2_Write(LED_ON);
 398              		.loc 1 277 0
 399 0044 0020     		movs	r0, #0
 400 0046 FFF7FEFF 		bl	LED_Debug2_Write
 401              	.LVL36:
 402              	.L21:
 278:main.c        ****             #endif
 279:main.c        ****             break;
ARM GAS  C:\Users\mewin\AppData\Local\Temp\cccmgCtR.s 			page 13


 280:main.c        ****         default:
 281:main.c        ****             //some error
 282:main.c        ****             break;
 283:main.c        ****     }
 284:main.c        **** }
 403              		.loc 1 284 0
 404              		@ sp needed
 405 004a 10BD     		pop	{r4, pc}
 406              	.L27:
 407              		.align	2
 408              	.L26:
 409 004c 00000000 		.word	.LANCHOR0
 410              		.cfi_endproc
 411              	.LFE41:
 412              		.size	DisplayErrorCode, .-DisplayErrorCode
 413              		.section	.text.getSerialAddress,"ax",%progbits
 414              		.align	2
 415              		.global	getSerialAddress
 416              		.code	16
 417              		.thumb_func
 418              		.type	getSerialAddress, %function
 419              	getSerialAddress:
 420              	.LFB42:
 285:main.c        **** 
 286:main.c        **** 
 287:main.c        **** // Reads dip switches to calculate the serial address of drive motor
 288:main.c        **** // Taken from Davis Sauer's IMU project
 289:main.c        **** int getSerialAddress() {
 421              		.loc 1 289 0
 422              		.cfi_startproc
 423              		@ args = 0, pretend = 0, frame = 0
 424              		@ frame_needed = 0, uses_anonymous_args = 0
 425 0000 10B5     		push	{r4, lr}
 426              		.cfi_def_cfa_offset 8
 427              		.cfi_offset 4, -8
 428              		.cfi_offset 14, -4
 429              	.LVL37:
 290:main.c        ****     int address = 0;
 291:main.c        ****     if (Dip1_Read()==0)
 430              		.loc 1 291 0
 431 0002 FFF7FEFF 		bl	Dip1_Read
 432              	.LVL38:
 433 0006 0028     		cmp	r0, #0
 434 0008 01D0     		beq	.L34
 290:main.c        ****     int address = 0;
 435              		.loc 1 290 0
 436 000a 0024     		movs	r4, #0
 437 000c 00E0     		b	.L29
 438              	.L34:
 292:main.c        ****         address += 1;
 439              		.loc 1 292 0
 440 000e 0124     		movs	r4, #1
 441              	.L29:
 442              	.LVL39:
 293:main.c        ****     if (Dip2_Read()==0)
 443              		.loc 1 293 0
 444 0010 FFF7FEFF 		bl	Dip2_Read
ARM GAS  C:\Users\mewin\AppData\Local\Temp\cccmgCtR.s 			page 14


 445              	.LVL40:
 446 0014 0028     		cmp	r0, #0
 447 0016 00D1     		bne	.L30
 294:main.c        ****         address += 2;
 448              		.loc 1 294 0
 449 0018 0234     		adds	r4, r4, #2
 450              	.LVL41:
 451              	.L30:
 295:main.c        ****     if (Dip3_Read()==0)
 452              		.loc 1 295 0
 453 001a FFF7FEFF 		bl	Dip3_Read
 454              	.LVL42:
 455 001e 0028     		cmp	r0, #0
 456 0020 00D1     		bne	.L31
 296:main.c        ****         address += 4;
 457              		.loc 1 296 0
 458 0022 0434     		adds	r4, r4, #4
 459              	.LVL43:
 460              	.L31:
 297:main.c        ****     if (Dip4_Read()==0)
 461              		.loc 1 297 0
 462 0024 FFF7FEFF 		bl	Dip4_Read
 463              	.LVL44:
 464 0028 0028     		cmp	r0, #0
 465 002a 00D1     		bne	.L32
 298:main.c        ****         address += 8;
 466              		.loc 1 298 0
 467 002c 0834     		adds	r4, r4, #8
 468              	.LVL45:
 469              	.L32:
 299:main.c        ****     if (address == 0)
 470              		.loc 1 299 0
 471 002e 002C     		cmp	r4, #0
 472 0030 00D1     		bne	.L33
 300:main.c        ****         address = DEVICE_SERIAL_TELEM_LOCALIZATION;
 473              		.loc 1 300 0
 474 0032 0134     		adds	r4, r4, #1
 475              	.LVL46:
 476              	.L33:
 301:main.c        ****  
 302:main.c        ****     return address;
 303:main.c        **** }
 477              		.loc 1 303 0
 478 0034 2000     		movs	r0, r4
 479              		@ sp needed
 480              	.LVL47:
 481 0036 10BD     		pop	{r4, pc}
 482              		.cfi_endproc
 483              	.LFE42:
 484              		.size	getSerialAddress, .-getSerialAddress
 485              		.section	.text.Initialize,"ax",%progbits
 486              		.align	2
 487              		.global	Initialize
 488              		.code	16
 489              		.thumb_func
 490              		.type	Initialize, %function
 491              	Initialize:
ARM GAS  C:\Users\mewin\AppData\Local\Temp\cccmgCtR.s 			page 15


 492              	.LFB38:
 175:main.c        ****     CyGlobalIntEnable; /* Enable global interrupts. LED arrays need this first */
 493              		.loc 1 175 0
 494              		.cfi_startproc
 495              		@ args = 0, pretend = 0, frame = 0
 496              		@ frame_needed = 0, uses_anonymous_args = 0
 497 0000 70B5     		push	{r4, r5, r6, lr}
 498              		.cfi_def_cfa_offset 16
 499              		.cfi_offset 4, -16
 500              		.cfi_offset 5, -12
 501              		.cfi_offset 6, -8
 502              		.cfi_offset 14, -4
 176:main.c        ****     
 503              		.loc 1 176 0
 504              		.syntax divided
 505              	@ 176 "main.c" 1
 506 0002 62B6     		CPSIE   i
 507              	@ 0 "" 2
 179:main.c        ****     #endif
 508              		.loc 1 179 0
 509              		.thumb
 510              		.syntax unified
 511 0004 0420     		movs	r0, #4
 512 0006 FFF7FEFF 		bl	initalize_LEDs
 513              	.LVL48:
 182:main.c        ****     
 514              		.loc 1 182 0
 515 000a FFF7FEFF 		bl	Status_Reg_Switches_InterruptEnable
 516              	.LVL49:
 185:main.c        ****     
 517              		.loc 1 185 0
 518 000e FFF7FEFF 		bl	getSerialAddress
 519              	.LVL50:
 520 0012 1D4C     		ldr	r4, .L37
 521 0014 6071     		strb	r0, [r4, #5]
 188:main.c        ****     sprintf(txData, "Dip Addr: %x \r\n", address);
 522              		.loc 1 188 0
 523 0016 FFF7FEFF 		bl	UART_Start
 524              	.LVL51:
 189:main.c        ****     UART_UartPutString(txData);
 525              		.loc 1 189 0
 526 001a 6279     		ldrb	r2, [r4, #5]
 527 001c 1B4D     		ldr	r5, .L37+4
 528 001e 1C49     		ldr	r1, .L37+8
 529 0020 2800     		movs	r0, r5
 530 0022 FFF7FEFF 		bl	sprintf
 531              	.LVL52:
 190:main.c        ****     #endif
 532              		.loc 1 190 0
 533 0026 2800     		movs	r0, r5
 534 0028 FFF7FEFF 		bl	UART_UartPutString
 535              	.LVL53:
 194:main.c        ****     #endif
 536              		.loc 1 194 0
 537 002c 6379     		ldrb	r3, [r4, #5]
 538 002e DB08     		lsrs	r3, r3, #3
 539 0030 0125     		movs	r5, #1
ARM GAS  C:\Users\mewin\AppData\Local\Temp\cccmgCtR.s 			page 16


 540 0032 0126     		movs	r6, #1
 541 0034 3340     		ands	r3, r6
 542 0036 DB43     		mvns	r3, r3
 543 0038 D8B2     		uxtb	r0, r3
 544 003a FFF7FEFF 		bl	LED_Error_Write
 545              	.LVL54:
 197:main.c        ****     #endif
 546              		.loc 1 197 0
 547 003e 6079     		ldrb	r0, [r4, #5]
 548 0040 8008     		lsrs	r0, r0, #2
 549 0042 6840     		eors	r0, r5
 550 0044 3040     		ands	r0, r6
 551 0046 FFF7FEFF 		bl	LED_Debug2_Write
 552              	.LVL55:
 200:main.c        ****     #endif 
 553              		.loc 1 200 0
 554 004a 6079     		ldrb	r0, [r4, #5]
 555 004c 4008     		lsrs	r0, r0, #1
 556 004e 6840     		eors	r0, r5
 557 0050 3040     		ands	r0, r6
 558 0052 FFF7FEFF 		bl	LED_Debug1_Write
 559              	.LVL56:
 203:main.c        ****     #endif
 560              		.loc 1 203 0
 561 0056 6079     		ldrb	r0, [r4, #5]
 562 0058 6840     		eors	r0, r5
 563 005a 3040     		ands	r0, r6
 564 005c FFF7FEFF 		bl	LED_CAN_Write
 565              	.LVL57:
 206:main.c        ****     Timer_1_Start();
 566              		.loc 1 206 0
 567 0060 6179     		ldrb	r1, [r4, #5]
 568 0062 4A1C     		adds	r2, r1, #1
 569 0064 0420     		movs	r0, #4
 570 0066 FFF7FEFF 		bl	InitCAN_swerve
 571              	.LVL58:
 207:main.c        ****     QuadDec_Start();
 572              		.loc 1 207 0
 573 006a FFF7FEFF 		bl	Timer_1_Start
 574              	.LVL59:
 208:main.c        ****     PWM_Motor1_Start();
 575              		.loc 1 208 0
 576 006e FFF7FEFF 		bl	QuadDec_Start
 577              	.LVL60:
 209:main.c        ****     PWM_Motor2_Start();
 578              		.loc 1 209 0
 579 0072 FFF7FEFF 		bl	PWM_Motor1_Start
 580              	.LVL61:
 210:main.c        ****     
 581              		.loc 1 210 0
 582 0076 FFF7FEFF 		bl	PWM_Motor2_Start
 583              	.LVL62:
 212:main.c        ****     isr_period_StartEx(Period_Reset_Handler);
 584              		.loc 1 212 0
 585 007a 0648     		ldr	r0, .L37+12
 586 007c FFF7FEFF 		bl	isr_Limit_1_StartEx
 587              	.LVL63:
ARM GAS  C:\Users\mewin\AppData\Local\Temp\cccmgCtR.s 			page 17


 213:main.c        **** }
 588              		.loc 1 213 0
 589 0080 0548     		ldr	r0, .L37+16
 590 0082 FFF7FEFF 		bl	isr_period_StartEx
 591              	.LVL64:
 214:main.c        **** 
 592              		.loc 1 214 0
 593              		@ sp needed
 594 0086 70BD     		pop	{r4, r5, r6, pc}
 595              	.L38:
 596              		.align	2
 597              	.L37:
 598 0088 00000000 		.word	.LANCHOR0
 599 008c 00000000 		.word	txData
 600 0090 20000000 		.word	.LC13
 601 0094 00000000 		.word	Pin_Limit_Handler
 602 0098 00000000 		.word	Period_Reset_Handler
 603              		.cfi_endproc
 604              	.LFE38:
 605              		.size	Initialize, .-Initialize
 606              		.section	.text.main,"ax",%progbits
 607              		.align	2
 608              		.global	main
 609              		.code	16
 610              		.thumb_func
 611              		.type	main, %function
 612              	main:
 613              	.LFB37:
 116:main.c        ****     Initialize();
 614              		.loc 1 116 0
 615              		.cfi_startproc
 616              		@ Volatile: function does not return.
 617              		@ args = 0, pretend = 0, frame = 0
 618              		@ frame_needed = 0, uses_anonymous_args = 0
 619 0000 70B5     		push	{r4, r5, r6, lr}
 620              		.cfi_def_cfa_offset 16
 621              		.cfi_offset 4, -16
 622              		.cfi_offset 5, -12
 623              		.cfi_offset 6, -8
 624              		.cfi_offset 14, -4
 117:main.c        ****     #ifdef RGB_LED_ARRAY
 625              		.loc 1 117 0
 626 0002 FFF7FEFF 		bl	Initialize
 627              	.LVL65:
 119:main.c        ****     #endif
 628              		.loc 1 119 0
 629 0006 244B     		ldr	r3, .L50
 630 0008 186E     		ldr	r0, [r3, #96]
 631 000a FFF7FEFF 		bl	StripLights_DisplayClear
 632              	.LVL66:
 633              	.L40:
 124:main.c        ****             case(UNINIT):
 634              		.loc 1 124 0
 635 000e FFF7FEFF 		bl	GetState
 636              	.LVL67:
 637 0012 0228     		cmp	r0, #2
 638 0014 2CD0     		beq	.L42
ARM GAS  C:\Users\mewin\AppData\Local\Temp\cccmgCtR.s 			page 18


 639 0016 04D8     		bhi	.L43
 640 0018 0028     		cmp	r0, #0
 641 001a 0BD0     		beq	.L44
 642 001c 0128     		cmp	r0, #1
 643 001e 18D0     		beq	.L45
 644 0020 37E0     		b	.L41
 645              	.L43:
 646 0022 0428     		cmp	r0, #4
 647 0024 2CD0     		beq	.L46
 648 0026 2FD3     		bcc	.L47
 649 0028 FF28     		cmp	r0, #255
 650 002a 32D1     		bne	.L41
 127:main.c        ****                 break;
 651              		.loc 1 127 0
 652 002c FC38     		subs	r0, r0, #252
 653 002e FFF7FEFF 		bl	SetStateTo
 654              	.LVL68:
 128:main.c        ****             case(SET_PWM_M1):
 655              		.loc 1 128 0
 656 0032 ECE7     		b	.L40
 657              	.L44:
 130:main.c        ****                 SetStateTo(CHECK_CAN);
 658              		.loc 1 130 0
 659 0034 194B     		ldr	r3, .L50+4
 660 0036 0622     		movs	r2, #6
 661 0038 9C5E     		ldrsh	r4, [r3, r2]
 662 003a 1D7A     		ldrb	r5, [r3, #8]
 663 003c FFF7FEFF 		bl	Status_Reg_Switches_Read
 664              	.LVL69:
 665 0040 0200     		movs	r2, r0
 666 0042 2900     		movs	r1, r5
 667 0044 2000     		movs	r0, r4
 668 0046 FFF7FEFF 		bl	set_PWM_M1
 669              	.LVL70:
 131:main.c        ****                 break;
 670              		.loc 1 131 0
 671 004a 0320     		movs	r0, #3
 672 004c FFF7FEFF 		bl	SetStateTo
 673              	.LVL71:
 132:main.c        ****             case(SET_PWM_M2):
 674              		.loc 1 132 0
 675 0050 DDE7     		b	.L40
 676              	.L45:
 134:main.c        ****                 SetStateTo(CHECK_CAN);
 677              		.loc 1 134 0
 678 0052 124B     		ldr	r3, .L50+4
 679 0054 0A22     		movs	r2, #10
 680 0056 9C5E     		ldrsh	r4, [r3, r2]
 681 0058 1D79     		ldrb	r5, [r3, #4]
 682 005a FFF7FEFF 		bl	Status_Reg_Switches_Read
 683              	.LVL72:
 684 005e 0200     		movs	r2, r0
 685 0060 2900     		movs	r1, r5
 686 0062 2000     		movs	r0, r4
 687 0064 FFF7FEFF 		bl	set_PWM_M2
 688              	.LVL73:
 135:main.c        ****                 break;
ARM GAS  C:\Users\mewin\AppData\Local\Temp\cccmgCtR.s 			page 19


 689              		.loc 1 135 0
 690 0068 0320     		movs	r0, #3
 691 006a FFF7FEFF 		bl	SetStateTo
 692              	.LVL74:
 136:main.c        ****             case(CALC_PID): //only applies to swivel
 693              		.loc 1 136 0
 694 006e CEE7     		b	.L40
 695              	.L42:
 138:main.c        ****                 SetStateTo(CHECK_CAN);
 696              		.loc 1 138 0
 697 0070 0A4B     		ldr	r3, .L50+4
 698 0072 D868     		ldr	r0, [r3, #12]
 699 0074 FFF7FEFF 		bl	SetPosition
 700              	.LVL75:
 139:main.c        ****                 break;
 701              		.loc 1 139 0
 702 0078 0320     		movs	r0, #3
 703 007a FFF7FEFF 		bl	SetStateTo
 704              	.LVL76:
 140:main.c        ****             case(QUEUE_ERROR):
 705              		.loc 1 140 0
 706 007e C6E7     		b	.L40
 707              	.L46:
 142:main.c        ****                 break;
 708              		.loc 1 142 0
 709 0080 0320     		movs	r0, #3
 710 0082 FFF7FEFF 		bl	SetStateTo
 711              	.LVL77:
 143:main.c        ****             case(CHECK_CAN):
 712              		.loc 1 143 0
 713 0086 C2E7     		b	.L40
 714              	.L47:
 145:main.c        ****                 #ifdef PRINT_CAN_PACKET
 715              		.loc 1 145 0
 716 0088 0549     		ldr	r1, .L50+8
 717 008a 0648     		ldr	r0, .L50+12
 718 008c FFF7FEFF 		bl	NextStateFromCAN
 719              	.LVL78:
 149:main.c        ****             default:
 720              		.loc 1 149 0
 721 0090 BDE7     		b	.L40
 722              	.L41:
 153:main.c        ****                 break;
 723              		.loc 1 153 0
 724 0092 FFF7FEFF 		bl	GotoUninitState
 725              	.LVL79:
 154:main.c        **** 
 726              		.loc 1 154 0
 727 0096 BAE7     		b	.L40
 728              	.L51:
 729              		.align	2
 730              	.L50:
 731 0098 00000000 		.word	StripLights_CLUT
 732 009c 00000000 		.word	.LANCHOR0
 733 00a0 00000000 		.word	can_send
 734 00a4 00000000 		.word	can_recieve
 735              		.cfi_endproc
ARM GAS  C:\Users\mewin\AppData\Local\Temp\cccmgCtR.s 			page 20


 736              	.LFE37:
 737              		.size	main, .-main
 738              		.comm	can_send,12,4
 739              		.comm	can_recieve,12,4
 740              		.global	CAN_check_delay
 741              		.global	drive
 742              		.global	address
 743              		.global	encoderTimeOut
 744              		.global	ignoreLimSw_M2
 745              		.global	ignoreLimSw_M1
 746              		.global	nextPWM_M2
 747              		.global	nextPWM_M1
 748              		.comm	txData,100,4
 749              		.global	millidegreeTarget_M2
 750              		.global	millidegreeTarget_M1
 751              		.global	ERRORTimeLED
 752              		.global	CAN_time_LED
 753              		.section	.rodata.str1.4,"aMS",%progbits,1
 754              		.align	2
 755              	.LC5:
 756 0000 42797465 		.ascii	"Byte%d %x   \000"
 756      25642025 
 756      78202020 
 756      00
 757 000d 000000   		.space	3
 758              	.LC8:
 759 0010 49443A25 		.ascii	"ID:%x %x %x\015\012\000"
 759      78202578 
 759      2025780D 
 759      0A00
 760 001e 0000     		.space	2
 761              	.LC13:
 762 0020 44697020 		.ascii	"Dip Addr: %x \015\012\000"
 762      41646472 
 762      3A202578 
 762      200D0A00 
 763              		.bss
 764              		.align	2
 765              		.set	.LANCHOR0,. + 0
 766              		.type	CAN_time_LED, %object
 767              		.size	CAN_time_LED, 1
 768              	CAN_time_LED:
 769 0000 00       		.space	1
 770              		.type	CAN_check_delay, %object
 771              		.size	CAN_check_delay, 1
 772              	CAN_check_delay:
 773 0001 00       		.space	1
 774              		.type	ERRORTimeLED, %object
 775              		.size	ERRORTimeLED, 1
 776              	ERRORTimeLED:
 777 0002 00       		.space	1
 778              		.type	encoderTimeOut, %object
 779              		.size	encoderTimeOut, 1
 780              	encoderTimeOut:
 781 0003 00       		.space	1
 782              		.type	ignoreLimSw_M2, %object
 783              		.size	ignoreLimSw_M2, 1
ARM GAS  C:\Users\mewin\AppData\Local\Temp\cccmgCtR.s 			page 21


 784              	ignoreLimSw_M2:
 785 0004 00       		.space	1
 786              		.type	address, %object
 787              		.size	address, 1
 788              	address:
 789 0005 00       		.space	1
 790              		.type	nextPWM_M1, %object
 791              		.size	nextPWM_M1, 2
 792              	nextPWM_M1:
 793 0006 0000     		.space	2
 794              		.type	ignoreLimSw_M1, %object
 795              		.size	ignoreLimSw_M1, 1
 796              	ignoreLimSw_M1:
 797 0008 00       		.space	1
 798 0009 00       		.space	1
 799              		.type	nextPWM_M2, %object
 800              		.size	nextPWM_M2, 2
 801              	nextPWM_M2:
 802 000a 0000     		.space	2
 803              		.type	millidegreeTarget_M2, %object
 804              		.size	millidegreeTarget_M2, 4
 805              	millidegreeTarget_M2:
 806 000c 00000000 		.space	4
 807              		.type	drive, %object
 808              		.size	drive, 1
 809              	drive:
 810 0010 00       		.space	1
 811 0011 000000   		.space	3
 812              		.type	millidegreeTarget_M1, %object
 813              		.size	millidegreeTarget_M1, 4
 814              	millidegreeTarget_M1:
 815 0014 00000000 		.space	4
 816              		.text
 817              	.Letext0:
 818              		.file 2 "c:\\program files (x86)\\cypress\\psoc creator\\4.4\\psoc creator\\import\\gnu\\arm\\5.4.
 819              		.file 3 "c:\\program files (x86)\\cypress\\psoc creator\\4.4\\psoc creator\\import\\gnu\\arm\\5.4.
 820              		.file 4 "../CANLib/CANPacket.h"
 821              		.file 5 "Generated_Source\\PSoC4/cytypes.h"
 822              		.file 6 "Generated_Source\\PSoC4/Timer_1.h"
 823              		.file 7 "Motor_Unit_CAN.h"
 824              		.file 8 "MotorDrive.h"
 825              		.file 9 "Generated_Source\\PSoC4/LED_Error.h"
 826              		.file 10 "Generated_Source\\PSoC4/LED_Debug1.h"
 827              		.file 11 "Generated_Source\\PSoC4/LED_Debug2.h"
 828              		.file 12 "Generated_Source\\PSoC4/LED_CAN.h"
 829              		.file 13 "Generated_Source\\PSoC4/Status_Reg_Switches.h"
 830              		.file 14 "../CANLib/CANMotorUnit.h"
 831              		.file 15 "../CANLib/Port_swerve.h"
 832              		.file 16 "c:\\program files (x86)\\cypress\\psoc creator\\4.4\\psoc creator\\import\\gnu\\arm\\5.4
 833              		.file 17 "Generated_Source\\PSoC4/UART_SPI_UART.h"
 834              		.file 18 "Generated_Source\\PSoC4/Dip1.h"
 835              		.file 19 "Generated_Source\\PSoC4/Dip2.h"
 836              		.file 20 "Generated_Source\\PSoC4/Dip3.h"
 837              		.file 21 "Generated_Source\\PSoC4/Dip4.h"
 838              		.file 22 "LED_Array.h"
 839              		.file 23 "Generated_Source\\PSoC4/UART.h"
 840              		.file 24 "Generated_Source\\PSoC4/QuadDec.h"
ARM GAS  C:\Users\mewin\AppData\Local\Temp\cccmgCtR.s 			page 22


 841              		.file 25 "Generated_Source\\PSoC4/PWM_Motor1.h"
 842              		.file 26 "Generated_Source\\PSoC4/PWM_Motor2.h"
 843              		.file 27 "Generated_Source\\PSoC4/isr_Limit_1.h"
 844              		.file 28 "Generated_Source\\PSoC4/isr_period.h"
 845              		.file 29 "Generated_Source\\PSoC4/StripLights.h"
 846              		.file 30 "Motor_Unit_FSM.h"
 847              		.file 31 "PositionPID.h"