ARM GAS  C:\Users\casey\AppData\Local\Temp\ccZkbeSq.s 			page 1


   1              		.syntax unified
   2              		.cpu cortex-m0
   3              		.fpu softvfp
   4              		.eabi_attribute 20, 1
   5              		.eabi_attribute 21, 1
   6              		.eabi_attribute 23, 3
   7              		.eabi_attribute 24, 1
   8              		.eabi_attribute 25, 1
   9              		.eabi_attribute 26, 1
  10              		.eabi_attribute 30, 1
  11              		.eabi_attribute 34, 0
  12              		.eabi_attribute 18, 4
  13              		.thumb
  14              		.syntax unified
  15              		.file	"Motor_Unit_CAN.c"
  16              		.text
  17              	.Ltext0:
  18              		.cfi_sections	.debug_frame
  19              		.section	.text.GetLimitSwNumFromPacket,"ax",%progbits
  20              		.align	2
  21              		.code	16
  22              		.thumb_func
  23              		.type	GetLimitSwNumFromPacket, %function
  24              	GetLimitSwNumFromPacket:
  25              	.LFB38:
  26              		.file 1 "Motor_Unit_CAN.c"
   1:Motor_Unit_CAN.c **** /* ========================================
   2:Motor_Unit_CAN.c ****  *
   3:Motor_Unit_CAN.c ****  * Copyright YOUR COMPANY, THE YEAR
   4:Motor_Unit_CAN.c ****  * All Rights Reserved
   5:Motor_Unit_CAN.c ****  * UNPUBLISHED, LICENSED SOFTWARE.
   6:Motor_Unit_CAN.c ****  *
   7:Motor_Unit_CAN.c ****  * CONFIDENTIAL AND PROPRIETARY INFORMATION
   8:Motor_Unit_CAN.c ****  * WHICH IS THE PROPERTY OF your company.
   9:Motor_Unit_CAN.c ****  *
  10:Motor_Unit_CAN.c ****  * ========================================
  11:Motor_Unit_CAN.c **** */
  12:Motor_Unit_CAN.c **** 
  13:Motor_Unit_CAN.c **** /* [] END OF FILE */
  14:Motor_Unit_CAN.c **** #define ID_SET_LIM_SW_ENC_BOUND 0x12
  15:Motor_Unit_CAN.c **** 
  16:Motor_Unit_CAN.c **** #include "main.h"
  17:Motor_Unit_CAN.c **** #include "../CANLib/CANLibrary.h"
  18:Motor_Unit_CAN.c **** #include "Motor_Unit_CAN.h"
  19:Motor_Unit_CAN.c **** #include "Motor_Unit_FSM.h"
  20:Motor_Unit_CAN.c **** #include "MotorDrive.h"
  21:Motor_Unit_CAN.c **** #include "PositionPID.h"
  22:Motor_Unit_CAN.c **** 
  23:Motor_Unit_CAN.c **** #include <stdlib.h>
  24:Motor_Unit_CAN.c **** 
  25:Motor_Unit_CAN.c **** #ifdef RGB_LED_ARRAY
  26:Motor_Unit_CAN.c **** #include "LED_Array.h"
  27:Motor_Unit_CAN.c **** extern const uint32 StripLights_CLUT[ ];
  28:Motor_Unit_CAN.c **** extern uint8_t address;
  29:Motor_Unit_CAN.c **** #endif
  30:Motor_Unit_CAN.c **** 
  31:Motor_Unit_CAN.c **** extern uint8_t bound_set1;
ARM GAS  C:\Users\casey\AppData\Local\Temp\ccZkbeSq.s 			page 2


  32:Motor_Unit_CAN.c **** extern uint8_t bound_set2;
  33:Motor_Unit_CAN.c **** extern int32_t enc_Count_Lim1; //TODO 
  34:Motor_Unit_CAN.c **** extern int32_t enc_Count_Lim2;
  35:Motor_Unit_CAN.c **** extern int32_t counter;
  36:Motor_Unit_CAN.c **** 
  37:Motor_Unit_CAN.c **** extern int16_t nextPWM_M1;
  38:Motor_Unit_CAN.c **** extern int16_t nextPWM_M2;
  39:Motor_Unit_CAN.c **** extern int32_t millidegreeTarget_M1;
  40:Motor_Unit_CAN.c **** extern int32_t millidegreeTarget_M2;
  41:Motor_Unit_CAN.c **** 
  42:Motor_Unit_CAN.c **** void SendEncoderData (CANPacket *packetToSend){
  43:Motor_Unit_CAN.c ****     AssembleTelemetryReportPacket(packetToSend, DEVICE_GROUP_JETSON, DEVICE_SERIAL_JETSON, 
  44:Motor_Unit_CAN.c ****         PACKET_TELEMETRY_ANG_POSITION, GetPositionmDeg());
  45:Motor_Unit_CAN.c ****     SendCANPacket(packetToSend);
  46:Motor_Unit_CAN.c **** }
  47:Motor_Unit_CAN.c **** 
  48:Motor_Unit_CAN.c **** static int32_t GetEncCountFromPacket(const CANPacket *packet);
  49:Motor_Unit_CAN.c **** 
  50:Motor_Unit_CAN.c **** static uint8_t GetLimitSwNumFromPacket(const CANPacket *packet);
  51:Motor_Unit_CAN.c **** 
  52:Motor_Unit_CAN.c **** //Reads from CAN FIFO and changes the state and mode accordingly
  53:Motor_Unit_CAN.c **** void NextStateFromCAN(CANPacket *receivedPacket, CANPacket *packetToSend) {
  54:Motor_Unit_CAN.c ****     uint16_t packageID = ReadCAN(receivedPacket);
  55:Motor_Unit_CAN.c ****     uint8_t motor_serial = GetDeviceSerialNumber(receivedPacket); //get which motor
  56:Motor_Unit_CAN.c ****     
  57:Motor_Unit_CAN.c ****     //Motor 1: Drive
  58:Motor_Unit_CAN.c ****     if (motor_serial == getSerialAddress()) {
  59:Motor_Unit_CAN.c ****         switch(packageID){
  60:Motor_Unit_CAN.c **** //            char out[32];
  61:Motor_Unit_CAN.c **** //            UART_UartPutString("package id : ");
  62:Motor_Unit_CAN.c **** //            UART_UartPutString(itoa(packageID, out, 10));
  63:Motor_Unit_CAN.c **** //            UART_UartPutString("\n\r");
  64:Motor_Unit_CAN.c ****             case(ID_MOTOR_UNIT_MODE_SEL):
  65:Motor_Unit_CAN.c ****                 if(GetModeFromPacket(receivedPacket) == MOTOR_UNIT_MODE_PWM) {
  66:Motor_Unit_CAN.c ****                     set_PWM_M1(0, 0, 0);
  67:Motor_Unit_CAN.c ****                     #ifdef RGB_LED_ARRAY
  68:Motor_Unit_CAN.c ****                     StripLights_MemClear(StripLights_BLACK);
  69:Motor_Unit_CAN.c ****                     StripLights_Pixel(0, 0, get_color_packet(0,0,255));
  70:Motor_Unit_CAN.c ****                     StripLights_Trigger(1);
  71:Motor_Unit_CAN.c ****                     #endif
  72:Motor_Unit_CAN.c ****                     SetModeTo(MOTOR_UNIT_MODE_PWM);
  73:Motor_Unit_CAN.c ****                     SetStateTo(CHECK_CAN);
  74:Motor_Unit_CAN.c ****                 }
  75:Motor_Unit_CAN.c ****                 else if (GetModeFromPacket(receivedPacket) == MOTOR_UNIT_MODE_PID) {
  76:Motor_Unit_CAN.c ****                     InitializePID();
  77:Motor_Unit_CAN.c ****                     #ifdef RGB_LED_ARRAY
  78:Motor_Unit_CAN.c ****                     StripLights_MemClear(StripLights_BLACK);
  79:Motor_Unit_CAN.c ****                     StripLights_Pixel(1, 0, get_color_packet(0,0,255));
  80:Motor_Unit_CAN.c ****                     StripLights_Trigger(1);
  81:Motor_Unit_CAN.c ****                     #endif
  82:Motor_Unit_CAN.c ****                     SetModeTo(MOTOR_UNIT_MODE_PID);
  83:Motor_Unit_CAN.c ****                     SetStateTo(CHECK_CAN);
  84:Motor_Unit_CAN.c ****                 } else {
  85:Motor_Unit_CAN.c ****                     GotoUninitState();
  86:Motor_Unit_CAN.c ****                 }
  87:Motor_Unit_CAN.c ****                 break;
  88:Motor_Unit_CAN.c ****                 
ARM GAS  C:\Users\casey\AppData\Local\Temp\ccZkbeSq.s 			page 3


  89:Motor_Unit_CAN.c ****             case(ID_MOTOR_UNIT_PWM_DIR_SET):    //TODO: Verify modifications are valid
  90:Motor_Unit_CAN.c ****                 if(GetMode() == MOTOR_UNIT_MODE_PWM){
  91:Motor_Unit_CAN.c ****                     //SetStateTo(SET_PWM);        //NEED NEW FLAG
  92:Motor_Unit_CAN.c ****                     SetStateTo(SET_PWM_M1);
  93:Motor_Unit_CAN.c ****                     nextPWM_M1 = GetPWMFromPacket(receivedPacket);
  94:Motor_Unit_CAN.c ****                 } else {
  95:Motor_Unit_CAN.c ****                     SetStateTo(QUEUE_ERROR);
  96:Motor_Unit_CAN.c ****                     DisplayErrorCode(MOTOR_ERROR_WRONG_MODE);
  97:Motor_Unit_CAN.c ****                 }
  98:Motor_Unit_CAN.c ****                 break;
  99:Motor_Unit_CAN.c ****             /*
 100:Motor_Unit_CAN.c ****             case(ID_MOTOR_UNIT_MAX_JNT_REV_SET):
 101:Motor_Unit_CAN.c ****                 break;
 102:Motor_Unit_CAN.c ****             */
 103:Motor_Unit_CAN.c ****             case(ID_MOTOR_UNIT_ENC_INIT):
 104:Motor_Unit_CAN.c **** //                if(GetMode() == MOTOR_UNIT_MODE_PID){ //turn off and clear PID Loop if encoder is
 105:Motor_Unit_CAN.c **** //                    set_PWM_M1(0, 0, 0);
 106:Motor_Unit_CAN.c **** //                    ClearPIDProgress();
 107:Motor_Unit_CAN.c **** //                    DisablePID();
 108:Motor_Unit_CAN.c **** //                }
 109:Motor_Unit_CAN.c ****                 if(GetEncoderZeroFromPacket(receivedPacket)) {
 110:Motor_Unit_CAN.c ****                     //QuadDec_SetCounter(0);
 111:Motor_Unit_CAN.c ****                     counter = 0;
 112:Motor_Unit_CAN.c ****                 }
 113:Motor_Unit_CAN.c ****                 // if(GetEncoderDirectionFromPacket(receivedPacket)) {
 114:Motor_Unit_CAN.c ****                 //     SetEncoderDirReverse();
 115:Motor_Unit_CAN.c ****                 // } else {
 116:Motor_Unit_CAN.c ****                 //     SetEncoderDirDefault();
 117:Motor_Unit_CAN.c ****                 // }
 118:Motor_Unit_CAN.c ****                 setUsingPot(0);
 119:Motor_Unit_CAN.c ****                 SetStateTo(CHECK_CAN);
 120:Motor_Unit_CAN.c ****                 break;
 121:Motor_Unit_CAN.c ****             
 122:Motor_Unit_CAN.c ****             // Common Packets 
 123:Motor_Unit_CAN.c ****             case(ID_ESTOP):
 124:Motor_Unit_CAN.c ****                 set_PWM_M1(0, 0, 0);
 125:Motor_Unit_CAN.c ****                 GotoUninitState();
 126:Motor_Unit_CAN.c ****                 #ifdef RGB_LED_ARRAY
 127:Motor_Unit_CAN.c ****                 StripLights_MemClear(StripLights_BLACK);
 128:Motor_Unit_CAN.c ****                 StripLights_Pixel(0, 0, get_color_packet(0,0,255));
 129:Motor_Unit_CAN.c ****                 StripLights_Trigger(1);
 130:Motor_Unit_CAN.c ****                 #endif
 131:Motor_Unit_CAN.c ****                 break;
 132:Motor_Unit_CAN.c ****             
 133:Motor_Unit_CAN.c ****             case(ID_TELEMETRY_PULL):
 134:Motor_Unit_CAN.c ****                 AssembleChipTypeReportPacket(packetToSend, GetSenderDeviceGroupCode(receivedPacket)
 135:Motor_Unit_CAN.c ****                     GetSenderDeviceSerialNumber(receivedPacket));
 136:Motor_Unit_CAN.c ****                 SendCANPacket(packetToSend);
 137:Motor_Unit_CAN.c ****                 break;
 138:Motor_Unit_CAN.c **** 
 139:Motor_Unit_CAN.c ****                 
 140:Motor_Unit_CAN.c ****                 /*
 141:Motor_Unit_CAN.c ****             case(ID_LED_COLOR):
 142:Motor_Unit_CAN.c ****                 break;
 143:Motor_Unit_CAN.c ****                 */
 144:Motor_Unit_CAN.c ****                 
 145:Motor_Unit_CAN.c ****                 
ARM GAS  C:\Users\casey\AppData\Local\Temp\ccZkbeSq.s 			page 4


 146:Motor_Unit_CAN.c ****             default://for 0xFF/no packets or Non recognized Packets
 147:Motor_Unit_CAN.c ****                 
 148:Motor_Unit_CAN.c **** //                if(GetMode() == MOTOR_UNIT_MODE_PID){ //need to check if values set;
 149:Motor_Unit_CAN.c **** //                    SetStateTo(CALC_PID);
 150:Motor_Unit_CAN.c **** //                } else if(GetMode() == MOTOR_UNIT_MODE_PWM){ //skips PWM state to not reset safte
 151:Motor_Unit_CAN.c **** //                    SetStateTo(CHECK_CAN);
 152:Motor_Unit_CAN.c **** //                } else {
 153:Motor_Unit_CAN.c **** //                    SetStateTo(CHECK_CAN);
 154:Motor_Unit_CAN.c **** //                }
 155:Motor_Unit_CAN.c ****                 SetStateTo(CHECK_CAN);
 156:Motor_Unit_CAN.c ****                 
 157:Motor_Unit_CAN.c ****                 //recieved Packet with Non Valid ID
 158:Motor_Unit_CAN.c ****                 if(packageID != NO_NEW_CAN_PACKET) {
 159:Motor_Unit_CAN.c ****                     DisplayErrorCode(MOTOR_ERROR_INVALID_PACKET);
 160:Motor_Unit_CAN.c ****                 }
 161:Motor_Unit_CAN.c ****                 break;
 162:Motor_Unit_CAN.c ****         }
 163:Motor_Unit_CAN.c ****         
 164:Motor_Unit_CAN.c ****     } else if (motor_serial == (getSerialAddress() + 16)) {  //swivel
 165:Motor_Unit_CAN.c ****         switch(packageID){
 166:Motor_Unit_CAN.c ****             case(ID_MOTOR_UNIT_MODE_SEL):
 167:Motor_Unit_CAN.c ****                 if(GetModeFromPacket(receivedPacket) == MOTOR_UNIT_MODE_PWM) {
 168:Motor_Unit_CAN.c ****                     set_PWM_M2(0, 0, 0);
 169:Motor_Unit_CAN.c ****                     #ifdef RGB_LED_ARRAY
 170:Motor_Unit_CAN.c ****                     StripLights_MemClear(StripLights_BLACK);
 171:Motor_Unit_CAN.c ****                     StripLights_Pixel(0, 0, get_color_packet(0,0,255));
 172:Motor_Unit_CAN.c ****                     StripLights_Trigger(1);
 173:Motor_Unit_CAN.c ****                     #endif
 174:Motor_Unit_CAN.c ****                     SetModeTo(MOTOR_UNIT_MODE_PWM);
 175:Motor_Unit_CAN.c ****                     SetStateTo(CHECK_CAN);
 176:Motor_Unit_CAN.c ****                 }
 177:Motor_Unit_CAN.c ****                 else if (GetModeFromPacket(receivedPacket) == MOTOR_UNIT_MODE_PID) {
 178:Motor_Unit_CAN.c ****                     InitializePID();
 179:Motor_Unit_CAN.c ****                     #ifdef RGB_LED_ARRAY
 180:Motor_Unit_CAN.c ****                     StripLights_MemClear(StripLights_BLACK);
 181:Motor_Unit_CAN.c ****                     StripLights_Pixel(1, 0, get_color_packet(0,0,255));
 182:Motor_Unit_CAN.c ****                     StripLights_Trigger(1);
 183:Motor_Unit_CAN.c ****                     #endif
 184:Motor_Unit_CAN.c ****                     SetModeTo(MOTOR_UNIT_MODE_PID);
 185:Motor_Unit_CAN.c ****                     SetStateTo(CHECK_CAN);
 186:Motor_Unit_CAN.c ****                 } else {
 187:Motor_Unit_CAN.c ****                     GotoUninitState();
 188:Motor_Unit_CAN.c ****                 }
 189:Motor_Unit_CAN.c ****                 break;
 190:Motor_Unit_CAN.c ****                 
 191:Motor_Unit_CAN.c ****             case(ID_MOTOR_UNIT_PWM_DIR_SET):    //TODO: Verify modifications are valid
 192:Motor_Unit_CAN.c ****                 if(GetMode() == MOTOR_UNIT_MODE_PWM){
 193:Motor_Unit_CAN.c ****                     //SetStateTo(SET_PWM);        //NEED NEW FLAG
 194:Motor_Unit_CAN.c ****                     SetStateTo(SET_PWM_M2);
 195:Motor_Unit_CAN.c ****                     nextPWM_M2 = GetPWMFromPacket(receivedPacket);
 196:Motor_Unit_CAN.c ****                 } else {
 197:Motor_Unit_CAN.c ****                     SetStateTo(QUEUE_ERROR);
 198:Motor_Unit_CAN.c ****                     DisplayErrorCode(MOTOR_ERROR_WRONG_MODE);
 199:Motor_Unit_CAN.c ****                 }
 200:Motor_Unit_CAN.c ****                 break;
 201:Motor_Unit_CAN.c ****                 
 202:Motor_Unit_CAN.c ****             case(ID_MOTOR_UNIT_PID_P_SET):
ARM GAS  C:\Users\casey\AppData\Local\Temp\ccZkbeSq.s 			page 5


 203:Motor_Unit_CAN.c ****                 SetkPosition(GetPFromPacket(receivedPacket));
 204:Motor_Unit_CAN.c ****                 PositionConstIsSet();
 205:Motor_Unit_CAN.c ****                 SetStateTo(CHECK_CAN);
 206:Motor_Unit_CAN.c ****                 break;
 207:Motor_Unit_CAN.c ****             
 208:Motor_Unit_CAN.c ****             case(ID_MOTOR_UNIT_PID_I_SET):
 209:Motor_Unit_CAN.c ****                 SetkIntegral(GetIFromPacket(receivedPacket));
 210:Motor_Unit_CAN.c ****                 IntegralConstIsSet();
 211:Motor_Unit_CAN.c ****                 SetStateTo(CHECK_CAN);
 212:Motor_Unit_CAN.c ****                 break;
 213:Motor_Unit_CAN.c ****             
 214:Motor_Unit_CAN.c ****             case(ID_MOTOR_UNIT_PID_D_SET):
 215:Motor_Unit_CAN.c ****                 SetkDerivative(GetDFromPacket(receivedPacket));
 216:Motor_Unit_CAN.c ****                 DerivativeConstIsSet();
 217:Motor_Unit_CAN.c ****                 SetStateTo(CHECK_CAN);
 218:Motor_Unit_CAN.c ****                 break;
 219:Motor_Unit_CAN.c ****             
 220:Motor_Unit_CAN.c ****             case(ID_MOTOR_UNIT_PID_POS_TGT_SET):
 221:Motor_Unit_CAN.c ****                 if(GetMode() == MOTOR_UNIT_MODE_PID && PIDconstsSet()) {//&& PID values set
 222:Motor_Unit_CAN.c ****                     EnablePID();
 223:Motor_Unit_CAN.c ****                     millidegreeTarget_M2 = GetPIDTargetFromPacket(receivedPacket);
 224:Motor_Unit_CAN.c ****                     SetStateTo(CALC_PID);
 225:Motor_Unit_CAN.c ****                 } else {
 226:Motor_Unit_CAN.c ****                     SetStateTo(QUEUE_ERROR);
 227:Motor_Unit_CAN.c ****                     DisplayErrorCode(MOTOR_ERROR_WRONG_MODE);
 228:Motor_Unit_CAN.c ****                 }
 229:Motor_Unit_CAN.c ****                 break;
 230:Motor_Unit_CAN.c ****             
 231:Motor_Unit_CAN.c ****             case(ID_MOTOR_UNIT_ENC_PPJR_SET):
 232:Motor_Unit_CAN.c ****                 SetConversion(360.0*1000/GetEncoderPPJRFromPacket(receivedPacket));
 233:Motor_Unit_CAN.c ****                 SetStateTo(CHECK_CAN);
 234:Motor_Unit_CAN.c ****                 break;
 235:Motor_Unit_CAN.c ****             /*
 236:Motor_Unit_CAN.c ****             case(ID_MOTOR_UNIT_MAX_JNT_REV_SET):
 237:Motor_Unit_CAN.c ****                 break;
 238:Motor_Unit_CAN.c ****             */
 239:Motor_Unit_CAN.c **** 
 240:Motor_Unit_CAN.c ****             case (ID_MOTOR_UNIT_POT_INIT_LO):
 241:Motor_Unit_CAN.c ****                 //printf("pot init low: %0llX",(uint64_t) receivedPacket->data);
 242:Motor_Unit_CAN.c ****                 setTickMin(GetPotADCFromPacket(receivedPacket));
 243:Motor_Unit_CAN.c ****                 setmDegMin(GetPotmDegFromPacket(receivedPacket));
 244:Motor_Unit_CAN.c ****                 UpdateConversion();
 245:Motor_Unit_CAN.c ****                 setUsingPot(1);
 246:Motor_Unit_CAN.c ****                 SetStateTo(CHECK_CAN);
 247:Motor_Unit_CAN.c ****                 break;
 248:Motor_Unit_CAN.c ****                 
 249:Motor_Unit_CAN.c ****             case (ID_MOTOR_UNIT_POT_INIT_HI):
 250:Motor_Unit_CAN.c ****                 //printf("pot init hi: %0llX",(uint64_t) receivedPacket->data);
 251:Motor_Unit_CAN.c ****                 setTickMax(GetPotADCFromPacket(receivedPacket));
 252:Motor_Unit_CAN.c ****                 setmDegMax(GetPotmDegFromPacket(receivedPacket));
 253:Motor_Unit_CAN.c ****                 UpdateConversion();
 254:Motor_Unit_CAN.c ****                 setUsingPot(1);
 255:Motor_Unit_CAN.c ****                 SetStateTo(CHECK_CAN);
 256:Motor_Unit_CAN.c ****                 break;
 257:Motor_Unit_CAN.c ****             case(ID_MOTOR_UNIT_ENC_INIT):
 258:Motor_Unit_CAN.c ****                 if(GetMode() == MOTOR_UNIT_MODE_PID){ //turn off and clear PID Loop if encoder is r
 259:Motor_Unit_CAN.c ****                     set_PWM_M2(0, 0, 0);
ARM GAS  C:\Users\casey\AppData\Local\Temp\ccZkbeSq.s 			page 6


 260:Motor_Unit_CAN.c ****                     ClearPIDProgress();
 261:Motor_Unit_CAN.c ****                     DisablePID();
 262:Motor_Unit_CAN.c ****                 }
 263:Motor_Unit_CAN.c ****                 if(GetEncoderZeroFromPacket(receivedPacket)) {
 264:Motor_Unit_CAN.c ****                     counter = 0;
 265:Motor_Unit_CAN.c ****                     //QuadDec_SetCounter(0);                     
 266:Motor_Unit_CAN.c ****                 }
 267:Motor_Unit_CAN.c ****                 SetStateTo(CHECK_CAN);
 268:Motor_Unit_CAN.c ****                 break;
 269:Motor_Unit_CAN.c ****             case(ID_MOTOR_UNIT_MAX_PID_PWM):
 270:Motor_Unit_CAN.c ****                 SetMaxPIDPWM(GetMaxPIDPWMFromPacket(receivedPacket));
 271:Motor_Unit_CAN.c ****                 SetStateTo(CHECK_CAN);
 272:Motor_Unit_CAN.c ****                 break;    
 273:Motor_Unit_CAN.c ****             
 274:Motor_Unit_CAN.c ****             case(ID_SET_LIM_SW_ENC_BOUND) : //Set Limit Switch Encoder Bound
 275:Motor_Unit_CAN.c ****             
 276:Motor_Unit_CAN.c ****                 if (GetLimitSwNumFromPacket(receivedPacket) == 0) { //lim1
 277:Motor_Unit_CAN.c ****                     bound_set1 = 1;
 278:Motor_Unit_CAN.c ****                     enc_Count_Lim1 = GetEncCountFromPacket(receivedPacket);
 279:Motor_Unit_CAN.c ****                 } else if (GetLimitSwNumFromPacket(receivedPacket) == 1) {
 280:Motor_Unit_CAN.c ****                     bound_set2 = 1;
 281:Motor_Unit_CAN.c ****                     enc_Count_Lim2 = GetEncCountFromPacket(receivedPacket);
 282:Motor_Unit_CAN.c ****                 }
 283:Motor_Unit_CAN.c ****                 break;
 284:Motor_Unit_CAN.c ****             
 285:Motor_Unit_CAN.c ****             // Common Packets 
 286:Motor_Unit_CAN.c ****             case(ID_ESTOP):
 287:Motor_Unit_CAN.c ****                 set_PWM_M2(0, 0, 0);
 288:Motor_Unit_CAN.c ****                 GotoUninitState();
 289:Motor_Unit_CAN.c ****                 #ifdef RGB_LED_ARRAY
 290:Motor_Unit_CAN.c ****                 StripLights_MemClear(StripLights_BLACK);
 291:Motor_Unit_CAN.c ****                 StripLights_Pixel(0, 0, get_color_packet(0,0,255));
 292:Motor_Unit_CAN.c ****                 StripLights_Trigger(1);
 293:Motor_Unit_CAN.c ****                 #endif
 294:Motor_Unit_CAN.c ****                 break;
 295:Motor_Unit_CAN.c ****             
 296:Motor_Unit_CAN.c ****             case(ID_TELEMETRY_PULL):
 297:Motor_Unit_CAN.c ****                 AssembleChipTypeReportPacket(packetToSend, GetSenderDeviceGroupCode(receivedPacket)
 298:Motor_Unit_CAN.c ****                     GetSenderDeviceSerialNumber(receivedPacket));
 299:Motor_Unit_CAN.c ****                 SendCANPacket(packetToSend);
 300:Motor_Unit_CAN.c ****                 break;
 301:Motor_Unit_CAN.c **** 
 302:Motor_Unit_CAN.c ****                 
 303:Motor_Unit_CAN.c ****                 /*
 304:Motor_Unit_CAN.c ****             case(ID_LED_COLOR):
 305:Motor_Unit_CAN.c ****                 break;
 306:Motor_Unit_CAN.c ****                 */
 307:Motor_Unit_CAN.c ****                 
 308:Motor_Unit_CAN.c ****                 
 309:Motor_Unit_CAN.c ****             default://for 0xFF/no packets or Non recognized Packets
 310:Motor_Unit_CAN.c ****                 
 311:Motor_Unit_CAN.c ****                 if(GetMode() == MOTOR_UNIT_MODE_PID){ //need to check if values set;
 312:Motor_Unit_CAN.c ****                     SetStateTo(CALC_PID);
 313:Motor_Unit_CAN.c ****                 } else if(GetMode() == MOTOR_UNIT_MODE_PWM){ //skips PWM state to not reset saftey 
 314:Motor_Unit_CAN.c ****                     SetStateTo(CHECK_CAN);
 315:Motor_Unit_CAN.c ****                 } else {
 316:Motor_Unit_CAN.c ****                     SetStateTo(CHECK_CAN);
ARM GAS  C:\Users\casey\AppData\Local\Temp\ccZkbeSq.s 			page 7


 317:Motor_Unit_CAN.c ****                 }
 318:Motor_Unit_CAN.c ****                 
 319:Motor_Unit_CAN.c ****                 //recieved Packet with Non Valid ID
 320:Motor_Unit_CAN.c ****                 if(packageID != NO_NEW_CAN_PACKET) {
 321:Motor_Unit_CAN.c ****                     DisplayErrorCode(MOTOR_ERROR_INVALID_PACKET);
 322:Motor_Unit_CAN.c ****                 }
 323:Motor_Unit_CAN.c ****                 break;
 324:Motor_Unit_CAN.c ****         }
 325:Motor_Unit_CAN.c ****     }
 326:Motor_Unit_CAN.c **** }
 327:Motor_Unit_CAN.c **** 
 328:Motor_Unit_CAN.c **** static int32_t GetEncCountFromPacket(const CANPacket *packet) {
 329:Motor_Unit_CAN.c ****     return DecodeBytesToIntMSBFirst(packet->data, 2, 5);
 330:Motor_Unit_CAN.c **** }
 331:Motor_Unit_CAN.c **** 
 332:Motor_Unit_CAN.c **** static uint8_t GetLimitSwNumFromPacket(const CANPacket *packet) {
  27              		.loc 1 332 0
  28              		.cfi_startproc
  29              		@ args = 0, pretend = 0, frame = 0
  30              		@ frame_needed = 0, uses_anonymous_args = 0
  31              		@ link register save eliminated.
  32              	.LVL0:
 333:Motor_Unit_CAN.c ****     return packet->data[1];
  33              		.loc 1 333 0
  34 0000 0079     		ldrb	r0, [r0, #4]
  35              	.LVL1:
 334:Motor_Unit_CAN.c **** }
  36              		.loc 1 334 0
  37              		@ sp needed
  38 0002 7047     		bx	lr
  39              		.cfi_endproc
  40              	.LFE38:
  41              		.size	GetLimitSwNumFromPacket, .-GetLimitSwNumFromPacket
  42              		.section	.text.GetEncCountFromPacket,"ax",%progbits
  43              		.align	2
  44              		.code	16
  45              		.thumb_func
  46              		.type	GetEncCountFromPacket, %function
  47              	GetEncCountFromPacket:
  48              	.LFB37:
 328:Motor_Unit_CAN.c ****     return DecodeBytesToIntMSBFirst(packet->data, 2, 5);
  49              		.loc 1 328 0
  50              		.cfi_startproc
  51              		@ args = 0, pretend = 0, frame = 0
  52              		@ frame_needed = 0, uses_anonymous_args = 0
  53              	.LVL2:
  54 0000 10B5     		push	{r4, lr}
  55              		.cfi_def_cfa_offset 8
  56              		.cfi_offset 4, -8
  57              		.cfi_offset 14, -4
 329:Motor_Unit_CAN.c **** }
  58              		.loc 1 329 0
  59 0002 0330     		adds	r0, r0, #3
  60              	.LVL3:
  61 0004 0522     		movs	r2, #5
  62 0006 0221     		movs	r1, #2
  63 0008 FFF7FEFF 		bl	DecodeBytesToIntMSBFirst
ARM GAS  C:\Users\casey\AppData\Local\Temp\ccZkbeSq.s 			page 8


  64              	.LVL4:
 330:Motor_Unit_CAN.c **** 
  65              		.loc 1 330 0
  66              		@ sp needed
  67 000c 10BD     		pop	{r4, pc}
  68              		.cfi_endproc
  69              	.LFE37:
  70              		.size	GetEncCountFromPacket, .-GetEncCountFromPacket
  71 000e C046     		.section	.text.SendEncoderData,"ax",%progbits
  72              		.align	2
  73              		.global	SendEncoderData
  74              		.code	16
  75              		.thumb_func
  76              		.type	SendEncoderData, %function
  77              	SendEncoderData:
  78              	.LFB35:
  42:Motor_Unit_CAN.c ****     AssembleTelemetryReportPacket(packetToSend, DEVICE_GROUP_JETSON, DEVICE_SERIAL_JETSON, 
  79              		.loc 1 42 0
  80              		.cfi_startproc
  81              		@ args = 0, pretend = 0, frame = 0
  82              		@ frame_needed = 0, uses_anonymous_args = 0
  83              	.LVL5:
  84 0000 10B5     		push	{r4, lr}
  85              		.cfi_def_cfa_offset 8
  86              		.cfi_offset 4, -8
  87              		.cfi_offset 14, -4
  88 0002 82B0     		sub	sp, sp, #8
  89              		.cfi_def_cfa_offset 16
  90 0004 0400     		movs	r4, r0
  43:Motor_Unit_CAN.c ****         PACKET_TELEMETRY_ANG_POSITION, GetPositionmDeg());
  91              		.loc 1 43 0
  92 0006 FFF7FEFF 		bl	GetPositionmDeg
  93              	.LVL6:
  94 000a 0090     		str	r0, [sp]
  95 000c 0423     		movs	r3, #4
  96 000e 0122     		movs	r2, #1
  97 0010 0221     		movs	r1, #2
  98 0012 2000     		movs	r0, r4
  99 0014 FFF7FEFF 		bl	AssembleTelemetryReportPacket
 100              	.LVL7:
  45:Motor_Unit_CAN.c **** }
 101              		.loc 1 45 0
 102 0018 2000     		movs	r0, r4
 103 001a FFF7FEFF 		bl	SendCANPacket
 104              	.LVL8:
  46:Motor_Unit_CAN.c **** 
 105              		.loc 1 46 0
 106 001e 02B0     		add	sp, sp, #8
 107              		@ sp needed
 108              	.LVL9:
 109 0020 10BD     		pop	{r4, pc}
 110              		.cfi_endproc
 111              	.LFE35:
 112              		.size	SendEncoderData, .-SendEncoderData
 113              		.global	__aeabi_ui2d
 114              		.global	__aeabi_ddiv
 115 0022 C046     		.section	.text.NextStateFromCAN,"ax",%progbits
ARM GAS  C:\Users\casey\AppData\Local\Temp\ccZkbeSq.s 			page 9


 116              		.align	2
 117              		.global	NextStateFromCAN
 118              		.code	16
 119              		.thumb_func
 120              		.type	NextStateFromCAN, %function
 121              	NextStateFromCAN:
 122              	.LFB36:
  53:Motor_Unit_CAN.c ****     uint16_t packageID = ReadCAN(receivedPacket);
 123              		.loc 1 53 0
 124              		.cfi_startproc
 125              		@ args = 0, pretend = 0, frame = 0
 126              		@ frame_needed = 0, uses_anonymous_args = 0
 127              	.LVL10:
 128 0000 F8B5     		push	{r3, r4, r5, r6, r7, lr}
 129              		.cfi_def_cfa_offset 24
 130              		.cfi_offset 3, -24
 131              		.cfi_offset 4, -20
 132              		.cfi_offset 5, -16
 133              		.cfi_offset 6, -12
 134              		.cfi_offset 7, -8
 135              		.cfi_offset 14, -4
 136 0002 0600     		movs	r6, r0
 137 0004 0F00     		movs	r7, r1
  54:Motor_Unit_CAN.c ****     uint8_t motor_serial = GetDeviceSerialNumber(receivedPacket); //get which motor
 138              		.loc 1 54 0
 139 0006 FFF7FEFF 		bl	ReadCAN
 140              	.LVL11:
 141 000a 0400     		movs	r4, r0
 142              	.LVL12:
  55:Motor_Unit_CAN.c ****     
 143              		.loc 1 55 0
 144 000c 3000     		movs	r0, r6
 145              	.LVL13:
 146 000e FFF7FEFF 		bl	GetDeviceSerialNumber
 147              	.LVL14:
  58:Motor_Unit_CAN.c ****         switch(packageID){
 148              		.loc 1 58 0
 149 0012 0500     		movs	r5, r0
 150 0014 FFF7FEFF 		bl	getSerialAddress
 151              	.LVL15:
 152 0018 8542     		cmp	r5, r0
 153 001a 00D0     		beq	.LCB103
 154 001c A5E0     		b	.L5	@long jump
 155              	.LCB103:
  59:Motor_Unit_CAN.c **** //            char out[32];
 156              		.loc 1 59 0
 157 001e 0C2C     		cmp	r4, #12
 158 0020 60D0     		beq	.L7
 159 0022 04D8     		bhi	.L8
 160 0024 002C     		cmp	r4, #0
 161 0026 07D0     		beq	.L9
 162 0028 032C     		cmp	r4, #3
 163 002a 48D0     		beq	.L10
 164 002c 92E0     		b	.L6
 165              	.L8:
 166 002e F02C     		cmp	r4, #240
 167 0030 67D0     		beq	.L11
ARM GAS  C:\Users\casey\AppData\Local\Temp\ccZkbeSq.s 			page 10


 168 0032 F52C     		cmp	r4, #245
 169 0034 7ED0     		beq	.L12
 170 0036 8DE0     		b	.L6
 171              	.L9:
  65:Motor_Unit_CAN.c ****                     set_PWM_M1(0, 0, 0);
 172              		.loc 1 65 0
 173 0038 3000     		movs	r0, r6
 174 003a FFF7FEFF 		bl	GetModeFromPacket
 175              	.LVL16:
 176 003e 0028     		cmp	r0, #0
 177 0040 1BD1     		bne	.L13
  66:Motor_Unit_CAN.c ****                     #ifdef RGB_LED_ARRAY
 178              		.loc 1 66 0
 179 0042 0022     		movs	r2, #0
 180 0044 0021     		movs	r1, #0
 181 0046 FFF7FEFF 		bl	set_PWM_M1
 182              	.LVL17:
  68:Motor_Unit_CAN.c ****                     StripLights_Pixel(0, 0, get_color_packet(0,0,255));
 183              		.loc 1 68 0
 184 004a D74B     		ldr	r3, .L46
 185 004c 186E     		ldr	r0, [r3, #96]
 186 004e FFF7FEFF 		bl	StripLights_MemClear
 187              	.LVL18:
  69:Motor_Unit_CAN.c ****                     StripLights_Trigger(1);
 188              		.loc 1 69 0
 189 0052 FF22     		movs	r2, #255
 190 0054 0021     		movs	r1, #0
 191 0056 0020     		movs	r0, #0
 192 0058 FFF7FEFF 		bl	get_color_packet
 193              	.LVL19:
 194 005c 0200     		movs	r2, r0
 195 005e 0021     		movs	r1, #0
 196 0060 0020     		movs	r0, #0
 197 0062 FFF7FEFF 		bl	StripLights_Pixel
 198              	.LVL20:
  70:Motor_Unit_CAN.c ****                     #endif
 199              		.loc 1 70 0
 200 0066 0120     		movs	r0, #1
 201 0068 FFF7FEFF 		bl	StripLights_Trigger
 202              	.LVL21:
  72:Motor_Unit_CAN.c ****                     SetStateTo(CHECK_CAN);
 203              		.loc 1 72 0
 204 006c 0020     		movs	r0, #0
 205 006e FFF7FEFF 		bl	SetModeTo
 206              	.LVL22:
  73:Motor_Unit_CAN.c ****                 }
 207              		.loc 1 73 0
 208 0072 0320     		movs	r0, #3
 209 0074 FFF7FEFF 		bl	SetStateTo
 210              	.LVL23:
 211 0078 FFE1     		b	.L4
 212              	.L13:
  75:Motor_Unit_CAN.c ****                     InitializePID();
 213              		.loc 1 75 0
 214 007a 3000     		movs	r0, r6
 215 007c FFF7FEFF 		bl	GetModeFromPacket
 216              	.LVL24:
ARM GAS  C:\Users\casey\AppData\Local\Temp\ccZkbeSq.s 			page 11


 217 0080 0128     		cmp	r0, #1
 218 0082 19D1     		bne	.L15
  76:Motor_Unit_CAN.c ****                     #ifdef RGB_LED_ARRAY
 219              		.loc 1 76 0
 220 0084 FFF7FEFF 		bl	InitializePID
 221              	.LVL25:
  78:Motor_Unit_CAN.c ****                     StripLights_Pixel(1, 0, get_color_packet(0,0,255));
 222              		.loc 1 78 0
 223 0088 C74B     		ldr	r3, .L46
 224 008a 186E     		ldr	r0, [r3, #96]
 225 008c FFF7FEFF 		bl	StripLights_MemClear
 226              	.LVL26:
  79:Motor_Unit_CAN.c ****                     StripLights_Trigger(1);
 227              		.loc 1 79 0
 228 0090 FF22     		movs	r2, #255
 229 0092 0021     		movs	r1, #0
 230 0094 0020     		movs	r0, #0
 231 0096 FFF7FEFF 		bl	get_color_packet
 232              	.LVL27:
 233 009a 0200     		movs	r2, r0
 234 009c 0021     		movs	r1, #0
 235 009e 0120     		movs	r0, #1
 236 00a0 FFF7FEFF 		bl	StripLights_Pixel
 237              	.LVL28:
  80:Motor_Unit_CAN.c ****                     #endif
 238              		.loc 1 80 0
 239 00a4 0120     		movs	r0, #1
 240 00a6 FFF7FEFF 		bl	StripLights_Trigger
 241              	.LVL29:
  82:Motor_Unit_CAN.c ****                     SetStateTo(CHECK_CAN);
 242              		.loc 1 82 0
 243 00aa 0120     		movs	r0, #1
 244 00ac FFF7FEFF 		bl	SetModeTo
 245              	.LVL30:
  83:Motor_Unit_CAN.c ****                 } else {
 246              		.loc 1 83 0
 247 00b0 0320     		movs	r0, #3
 248 00b2 FFF7FEFF 		bl	SetStateTo
 249              	.LVL31:
 250 00b6 E0E1     		b	.L4
 251              	.L15:
  85:Motor_Unit_CAN.c ****                 }
 252              		.loc 1 85 0
 253 00b8 FFF7FEFF 		bl	GotoUninitState
 254              	.LVL32:
 255 00bc DDE1     		b	.L4
 256              	.L10:
  90:Motor_Unit_CAN.c ****                     //SetStateTo(SET_PWM);        //NEED NEW FLAG
 257              		.loc 1 90 0
 258 00be FFF7FEFF 		bl	GetMode
 259              	.LVL33:
 260 00c2 0028     		cmp	r0, #0
 261 00c4 07D1     		bne	.L16
  92:Motor_Unit_CAN.c ****                     nextPWM_M1 = GetPWMFromPacket(receivedPacket);
 262              		.loc 1 92 0
 263 00c6 FFF7FEFF 		bl	SetStateTo
 264              	.LVL34:
ARM GAS  C:\Users\casey\AppData\Local\Temp\ccZkbeSq.s 			page 12


  93:Motor_Unit_CAN.c ****                 } else {
 265              		.loc 1 93 0
 266 00ca 3000     		movs	r0, r6
 267 00cc FFF7FEFF 		bl	GetPWMFromPacket
 268              	.LVL35:
 269 00d0 B64B     		ldr	r3, .L46+4
 270 00d2 1880     		strh	r0, [r3]
 271 00d4 D1E1     		b	.L4
 272              	.L16:
  95:Motor_Unit_CAN.c ****                     DisplayErrorCode(MOTOR_ERROR_WRONG_MODE);
 273              		.loc 1 95 0
 274 00d6 0420     		movs	r0, #4
 275 00d8 FFF7FEFF 		bl	SetStateTo
 276              	.LVL36:
  96:Motor_Unit_CAN.c ****                 }
 277              		.loc 1 96 0
 278 00dc 0120     		movs	r0, #1
 279 00de FFF7FEFF 		bl	DisplayErrorCode
 280              	.LVL37:
 281 00e2 CAE1     		b	.L4
 282              	.L7:
 109:Motor_Unit_CAN.c ****                     //QuadDec_SetCounter(0);
 283              		.loc 1 109 0
 284 00e4 3000     		movs	r0, r6
 285 00e6 FFF7FEFF 		bl	GetEncoderZeroFromPacket
 286              	.LVL38:
 287 00ea 0028     		cmp	r0, #0
 288 00ec 02D0     		beq	.L17
 111:Motor_Unit_CAN.c ****                 }
 289              		.loc 1 111 0
 290 00ee 0022     		movs	r2, #0
 291 00f0 AF4B     		ldr	r3, .L46+8
 292 00f2 1A60     		str	r2, [r3]
 293              	.L17:
 118:Motor_Unit_CAN.c ****                 SetStateTo(CHECK_CAN);
 294              		.loc 1 118 0
 295 00f4 0020     		movs	r0, #0
 296 00f6 FFF7FEFF 		bl	setUsingPot
 297              	.LVL39:
 119:Motor_Unit_CAN.c ****                 break;
 298              		.loc 1 119 0
 299 00fa 0320     		movs	r0, #3
 300 00fc FFF7FEFF 		bl	SetStateTo
 301              	.LVL40:
 120:Motor_Unit_CAN.c ****             
 302              		.loc 1 120 0
 303 0100 BBE1     		b	.L4
 304              	.L11:
 124:Motor_Unit_CAN.c ****                 GotoUninitState();
 305              		.loc 1 124 0
 306 0102 0022     		movs	r2, #0
 307 0104 0021     		movs	r1, #0
 308 0106 0020     		movs	r0, #0
 309 0108 FFF7FEFF 		bl	set_PWM_M1
 310              	.LVL41:
 125:Motor_Unit_CAN.c ****                 #ifdef RGB_LED_ARRAY
 311              		.loc 1 125 0
ARM GAS  C:\Users\casey\AppData\Local\Temp\ccZkbeSq.s 			page 13


 312 010c FFF7FEFF 		bl	GotoUninitState
 313              	.LVL42:
 127:Motor_Unit_CAN.c ****                 StripLights_Pixel(0, 0, get_color_packet(0,0,255));
 314              		.loc 1 127 0
 315 0110 A54B     		ldr	r3, .L46
 316 0112 186E     		ldr	r0, [r3, #96]
 317 0114 FFF7FEFF 		bl	StripLights_MemClear
 318              	.LVL43:
 128:Motor_Unit_CAN.c ****                 StripLights_Trigger(1);
 319              		.loc 1 128 0
 320 0118 FF22     		movs	r2, #255
 321 011a 0021     		movs	r1, #0
 322 011c 0020     		movs	r0, #0
 323 011e FFF7FEFF 		bl	get_color_packet
 324              	.LVL44:
 325 0122 0200     		movs	r2, r0
 326 0124 0021     		movs	r1, #0
 327 0126 0020     		movs	r0, #0
 328 0128 FFF7FEFF 		bl	StripLights_Pixel
 329              	.LVL45:
 129:Motor_Unit_CAN.c ****                 #endif
 330              		.loc 1 129 0
 331 012c 0120     		movs	r0, #1
 332 012e FFF7FEFF 		bl	StripLights_Trigger
 333              	.LVL46:
 131:Motor_Unit_CAN.c ****             
 334              		.loc 1 131 0
 335 0132 A2E1     		b	.L4
 336              	.L12:
 134:Motor_Unit_CAN.c ****                     GetSenderDeviceSerialNumber(receivedPacket));
 337              		.loc 1 134 0
 338 0134 3000     		movs	r0, r6
 339 0136 FFF7FEFF 		bl	GetSenderDeviceGroupCode
 340              	.LVL47:
 341 013a 0400     		movs	r4, r0
 342              	.LVL48:
 343 013c 3000     		movs	r0, r6
 344 013e FFF7FEFF 		bl	GetSenderDeviceSerialNumber
 345              	.LVL49:
 346 0142 0200     		movs	r2, r0
 347 0144 2100     		movs	r1, r4
 348 0146 3800     		movs	r0, r7
 349 0148 FFF7FEFF 		bl	AssembleChipTypeReportPacket
 350              	.LVL50:
 136:Motor_Unit_CAN.c ****                 break;
 351              		.loc 1 136 0
 352 014c 3800     		movs	r0, r7
 353 014e FFF7FEFF 		bl	SendCANPacket
 354              	.LVL51:
 137:Motor_Unit_CAN.c **** 
 355              		.loc 1 137 0
 356 0152 92E1     		b	.L4
 357              	.LVL52:
 358              	.L6:
 155:Motor_Unit_CAN.c ****                 
 359              		.loc 1 155 0
 360 0154 0320     		movs	r0, #3
ARM GAS  C:\Users\casey\AppData\Local\Temp\ccZkbeSq.s 			page 14


 361 0156 FFF7FEFF 		bl	SetStateTo
 362              	.LVL53:
 158:Motor_Unit_CAN.c ****                     DisplayErrorCode(MOTOR_ERROR_INVALID_PACKET);
 363              		.loc 1 158 0
 364 015a 964B     		ldr	r3, .L46+12
 365 015c 9C42     		cmp	r4, r3
 366 015e 00D1     		bne	.LCB304
 367 0160 8BE1     		b	.L4	@long jump
 368              	.LCB304:
 159:Motor_Unit_CAN.c ****                 }
 369              		.loc 1 159 0
 370 0162 0020     		movs	r0, #0
 371 0164 FFF7FEFF 		bl	DisplayErrorCode
 372              	.LVL54:
 373 0168 87E1     		b	.L4
 374              	.L5:
 164:Motor_Unit_CAN.c ****         switch(packageID){
 375              		.loc 1 164 0
 376 016a FFF7FEFF 		bl	getSerialAddress
 377              	.LVL55:
 378 016e 1030     		adds	r0, r0, #16
 379 0170 8542     		cmp	r5, r0
 380 0172 00D0     		beq	.LCB316
 381 0174 81E1     		b	.L4	@long jump
 382              	.LCB316:
 165:Motor_Unit_CAN.c ****             case(ID_MOTOR_UNIT_MODE_SEL):
 383              		.loc 1 165 0
 384 0176 0A2C     		cmp	r4, #10
 385 0178 00D1     		bne	.LCB318
 386 017a BBE0     		b	.L19	@long jump
 387              	.LCB318:
 388 017c 10D8     		bhi	.L20
 389 017e 042C     		cmp	r4, #4
 390 0180 00D1     		bne	.LCB322
 391 0182 9DE0     		b	.L21	@long jump
 392              	.LCB322:
 393 0184 04D8     		bhi	.L22
 394 0186 002C     		cmp	r4, #0
 395 0188 22D0     		beq	.L23
 396 018a 032C     		cmp	r4, #3
 397 018c 63D0     		beq	.L24
 398 018e 5BE1     		b	.L18
 399              	.L22:
 400 0190 062C     		cmp	r4, #6
 401 0192 00D1     		bne	.LCB334
 402 0194 7EE0     		b	.L25	@long jump
 403              	.LCB334:
 404 0196 72D3     		bcc	.L26
 405 0198 072C     		cmp	r4, #7
 406 019a 00D1     		bne	.LCB338
 407 019c 85E0     		b	.L27	@long jump
 408              	.LCB338:
 409 019e 53E1     		b	.L18
 410              	.L20:
 411 01a0 102C     		cmp	r4, #16
 412 01a2 00D1     		bne	.LCB344
 413 01a4 CAE0     		b	.L28	@long jump
ARM GAS  C:\Users\casey\AppData\Local\Temp\ccZkbeSq.s 			page 15


 414              	.LCB344:
 415 01a6 09D8     		bhi	.L29
 416 01a8 0D2C     		cmp	r4, #13
 417 01aa 00D1     		bne	.LCB348
 418 01ac F2E0     		b	.L30	@long jump
 419              	.LCB348:
 420 01ae 0F2C     		cmp	r4, #15
 421 01b0 00D1     		bne	.LCB350
 422 01b2 B0E0     		b	.L31	@long jump
 423              	.LCB350:
 424 01b4 0C2C     		cmp	r4, #12
 425 01b6 00D0     		beq	.LCB352
 426 01b8 46E1     		b	.L18	@long jump
 427              	.LCB352:
 428 01ba D2E0     		b	.L32
 429              	.L29:
 430 01bc F02C     		cmp	r4, #240
 431 01be 00D1     		bne	.LCB358
 432 01c0 19E1     		b	.L33	@long jump
 433              	.LCB358:
 434 01c2 F52C     		cmp	r4, #245
 435 01c4 00D1     		bne	.LCB360
 436 01c6 2FE1     		b	.L34	@long jump
 437              	.LCB360:
 438 01c8 122C     		cmp	r4, #18
 439 01ca 00D0     		beq	.LCB362
 440 01cc 3CE1     		b	.L18	@long jump
 441              	.LCB362:
 442 01ce F9E0     		b	.L35
 443              	.L23:
 444              	.LBB2:
 167:Motor_Unit_CAN.c ****                     set_PWM_M2(0, 0, 0);
 445              		.loc 1 167 0
 446 01d0 3000     		movs	r0, r6
 447 01d2 FFF7FEFF 		bl	GetModeFromPacket
 448              	.LVL56:
 449 01d6 0028     		cmp	r0, #0
 450 01d8 1BD1     		bne	.L36
 168:Motor_Unit_CAN.c ****                     #ifdef RGB_LED_ARRAY
 451              		.loc 1 168 0
 452 01da 0022     		movs	r2, #0
 453 01dc 0021     		movs	r1, #0
 454 01de FFF7FEFF 		bl	set_PWM_M2
 455              	.LVL57:
 170:Motor_Unit_CAN.c ****                     StripLights_Pixel(0, 0, get_color_packet(0,0,255));
 456              		.loc 1 170 0
 457 01e2 714B     		ldr	r3, .L46
 458 01e4 186E     		ldr	r0, [r3, #96]
 459 01e6 FFF7FEFF 		bl	StripLights_MemClear
 460              	.LVL58:
 171:Motor_Unit_CAN.c ****                     StripLights_Trigger(1);
 461              		.loc 1 171 0
 462 01ea FF22     		movs	r2, #255
 463 01ec 0021     		movs	r1, #0
 464 01ee 0020     		movs	r0, #0
 465 01f0 FFF7FEFF 		bl	get_color_packet
 466              	.LVL59:
ARM GAS  C:\Users\casey\AppData\Local\Temp\ccZkbeSq.s 			page 16


 467 01f4 0200     		movs	r2, r0
 468 01f6 0021     		movs	r1, #0
 469 01f8 0020     		movs	r0, #0
 470 01fa FFF7FEFF 		bl	StripLights_Pixel
 471              	.LVL60:
 172:Motor_Unit_CAN.c ****                     #endif
 472              		.loc 1 172 0
 473 01fe 0120     		movs	r0, #1
 474 0200 FFF7FEFF 		bl	StripLights_Trigger
 475              	.LVL61:
 174:Motor_Unit_CAN.c ****                     SetStateTo(CHECK_CAN);
 476              		.loc 1 174 0
 477 0204 0020     		movs	r0, #0
 478 0206 FFF7FEFF 		bl	SetModeTo
 479              	.LVL62:
 175:Motor_Unit_CAN.c ****                 }
 480              		.loc 1 175 0
 481 020a 0320     		movs	r0, #3
 482 020c FFF7FEFF 		bl	SetStateTo
 483              	.LVL63:
 484 0210 33E1     		b	.L4
 485              	.L36:
 177:Motor_Unit_CAN.c ****                     InitializePID();
 486              		.loc 1 177 0
 487 0212 3000     		movs	r0, r6
 488 0214 FFF7FEFF 		bl	GetModeFromPacket
 489              	.LVL64:
 490 0218 0128     		cmp	r0, #1
 491 021a 19D1     		bne	.L37
 178:Motor_Unit_CAN.c ****                     #ifdef RGB_LED_ARRAY
 492              		.loc 1 178 0
 493 021c FFF7FEFF 		bl	InitializePID
 494              	.LVL65:
 180:Motor_Unit_CAN.c ****                     StripLights_Pixel(1, 0, get_color_packet(0,0,255));
 495              		.loc 1 180 0
 496 0220 614B     		ldr	r3, .L46
 497 0222 186E     		ldr	r0, [r3, #96]
 498 0224 FFF7FEFF 		bl	StripLights_MemClear
 499              	.LVL66:
 181:Motor_Unit_CAN.c ****                     StripLights_Trigger(1);
 500              		.loc 1 181 0
 501 0228 FF22     		movs	r2, #255
 502 022a 0021     		movs	r1, #0
 503 022c 0020     		movs	r0, #0
 504 022e FFF7FEFF 		bl	get_color_packet
 505              	.LVL67:
 506 0232 0200     		movs	r2, r0
 507 0234 0021     		movs	r1, #0
 508 0236 0120     		movs	r0, #1
 509 0238 FFF7FEFF 		bl	StripLights_Pixel
 510              	.LVL68:
 182:Motor_Unit_CAN.c ****                     #endif
 511              		.loc 1 182 0
 512 023c 0120     		movs	r0, #1
 513 023e FFF7FEFF 		bl	StripLights_Trigger
 514              	.LVL69:
 184:Motor_Unit_CAN.c ****                     SetStateTo(CHECK_CAN);
ARM GAS  C:\Users\casey\AppData\Local\Temp\ccZkbeSq.s 			page 17


 515              		.loc 1 184 0
 516 0242 0120     		movs	r0, #1
 517 0244 FFF7FEFF 		bl	SetModeTo
 518              	.LVL70:
 185:Motor_Unit_CAN.c ****                 } else {
 519              		.loc 1 185 0
 520 0248 0320     		movs	r0, #3
 521 024a FFF7FEFF 		bl	SetStateTo
 522              	.LVL71:
 523 024e 14E1     		b	.L4
 524              	.L37:
 187:Motor_Unit_CAN.c ****                 }
 525              		.loc 1 187 0
 526 0250 FFF7FEFF 		bl	GotoUninitState
 527              	.LVL72:
 528 0254 11E1     		b	.L4
 529              	.L24:
 192:Motor_Unit_CAN.c ****                     //SetStateTo(SET_PWM);        //NEED NEW FLAG
 530              		.loc 1 192 0
 531 0256 FFF7FEFF 		bl	GetMode
 532              	.LVL73:
 533 025a 0028     		cmp	r0, #0
 534 025c 08D1     		bne	.L38
 194:Motor_Unit_CAN.c ****                     nextPWM_M2 = GetPWMFromPacket(receivedPacket);
 535              		.loc 1 194 0
 536 025e 0130     		adds	r0, r0, #1
 537 0260 FFF7FEFF 		bl	SetStateTo
 538              	.LVL74:
 195:Motor_Unit_CAN.c ****                 } else {
 539              		.loc 1 195 0
 540 0264 3000     		movs	r0, r6
 541 0266 FFF7FEFF 		bl	GetPWMFromPacket
 542              	.LVL75:
 543 026a 534B     		ldr	r3, .L46+16
 544 026c 1880     		strh	r0, [r3]
 545 026e 04E1     		b	.L4
 546              	.L38:
 197:Motor_Unit_CAN.c ****                     DisplayErrorCode(MOTOR_ERROR_WRONG_MODE);
 547              		.loc 1 197 0
 548 0270 0420     		movs	r0, #4
 549 0272 FFF7FEFF 		bl	SetStateTo
 550              	.LVL76:
 198:Motor_Unit_CAN.c ****                 }
 551              		.loc 1 198 0
 552 0276 0120     		movs	r0, #1
 553 0278 FFF7FEFF 		bl	DisplayErrorCode
 554              	.LVL77:
 555 027c FDE0     		b	.L4
 556              	.L26:
 203:Motor_Unit_CAN.c ****                 PositionConstIsSet();
 557              		.loc 1 203 0
 558 027e 3000     		movs	r0, r6
 559 0280 FFF7FEFF 		bl	GetPFromPacket
 560              	.LVL78:
 561 0284 FFF7FEFF 		bl	SetkPosition
 562              	.LVL79:
 204:Motor_Unit_CAN.c ****                 SetStateTo(CHECK_CAN);
ARM GAS  C:\Users\casey\AppData\Local\Temp\ccZkbeSq.s 			page 18


 563              		.loc 1 204 0
 564 0288 FFF7FEFF 		bl	PositionConstIsSet
 565              	.LVL80:
 205:Motor_Unit_CAN.c ****                 break;
 566              		.loc 1 205 0
 567 028c 0320     		movs	r0, #3
 568 028e FFF7FEFF 		bl	SetStateTo
 569              	.LVL81:
 206:Motor_Unit_CAN.c ****             
 570              		.loc 1 206 0
 571 0292 F2E0     		b	.L4
 572              	.L25:
 209:Motor_Unit_CAN.c ****                 IntegralConstIsSet();
 573              		.loc 1 209 0
 574 0294 3000     		movs	r0, r6
 575 0296 FFF7FEFF 		bl	GetIFromPacket
 576              	.LVL82:
 577 029a FFF7FEFF 		bl	SetkIntegral
 578              	.LVL83:
 210:Motor_Unit_CAN.c ****                 SetStateTo(CHECK_CAN);
 579              		.loc 1 210 0
 580 029e FFF7FEFF 		bl	IntegralConstIsSet
 581              	.LVL84:
 211:Motor_Unit_CAN.c ****                 break;
 582              		.loc 1 211 0
 583 02a2 0320     		movs	r0, #3
 584 02a4 FFF7FEFF 		bl	SetStateTo
 585              	.LVL85:
 212:Motor_Unit_CAN.c ****             
 586              		.loc 1 212 0
 587 02a8 E7E0     		b	.L4
 588              	.L27:
 215:Motor_Unit_CAN.c ****                 DerivativeConstIsSet();
 589              		.loc 1 215 0
 590 02aa 3000     		movs	r0, r6
 591 02ac FFF7FEFF 		bl	GetDFromPacket
 592              	.LVL86:
 593 02b0 FFF7FEFF 		bl	SetkDerivative
 594              	.LVL87:
 216:Motor_Unit_CAN.c ****                 SetStateTo(CHECK_CAN);
 595              		.loc 1 216 0
 596 02b4 FFF7FEFF 		bl	DerivativeConstIsSet
 597              	.LVL88:
 217:Motor_Unit_CAN.c ****                 break;
 598              		.loc 1 217 0
 599 02b8 0320     		movs	r0, #3
 600 02ba FFF7FEFF 		bl	SetStateTo
 601              	.LVL89:
 218:Motor_Unit_CAN.c ****             
 602              		.loc 1 218 0
 603 02be DCE0     		b	.L4
 604              	.L21:
 221:Motor_Unit_CAN.c ****                     EnablePID();
 605              		.loc 1 221 0
 606 02c0 FFF7FEFF 		bl	GetMode
 607              	.LVL90:
 608 02c4 0128     		cmp	r0, #1
ARM GAS  C:\Users\casey\AppData\Local\Temp\ccZkbeSq.s 			page 19


 609 02c6 0ED1     		bne	.L39
 221:Motor_Unit_CAN.c ****                     EnablePID();
 610              		.loc 1 221 0 is_stmt 0 discriminator 1
 611 02c8 FFF7FEFF 		bl	PIDconstsSet
 612              	.LVL91:
 613 02cc 0028     		cmp	r0, #0
 614 02ce 0AD0     		beq	.L39
 222:Motor_Unit_CAN.c ****                     millidegreeTarget_M2 = GetPIDTargetFromPacket(receivedPacket);
 615              		.loc 1 222 0 is_stmt 1
 616 02d0 FFF7FEFF 		bl	EnablePID
 617              	.LVL92:
 223:Motor_Unit_CAN.c ****                     SetStateTo(CALC_PID);
 618              		.loc 1 223 0
 619 02d4 3000     		movs	r0, r6
 620 02d6 FFF7FEFF 		bl	GetPIDTargetFromPacket
 621              	.LVL93:
 622 02da 384B     		ldr	r3, .L46+20
 623 02dc 1860     		str	r0, [r3]
 224:Motor_Unit_CAN.c ****                 } else {
 624              		.loc 1 224 0
 625 02de 0220     		movs	r0, #2
 626 02e0 FFF7FEFF 		bl	SetStateTo
 627              	.LVL94:
 628 02e4 C9E0     		b	.L4
 629              	.L39:
 226:Motor_Unit_CAN.c ****                     DisplayErrorCode(MOTOR_ERROR_WRONG_MODE);
 630              		.loc 1 226 0
 631 02e6 0420     		movs	r0, #4
 632 02e8 FFF7FEFF 		bl	SetStateTo
 633              	.LVL95:
 227:Motor_Unit_CAN.c ****                 }
 634              		.loc 1 227 0
 635 02ec 0120     		movs	r0, #1
 636 02ee FFF7FEFF 		bl	DisplayErrorCode
 637              	.LVL96:
 638 02f2 C2E0     		b	.L4
 639              	.L19:
 232:Motor_Unit_CAN.c ****                 SetStateTo(CHECK_CAN);
 640              		.loc 1 232 0
 641 02f4 3000     		movs	r0, r6
 642 02f6 FFF7FEFF 		bl	GetEncoderPPJRFromPacket
 643              	.LVL97:
 644 02fa FFF7FEFF 		bl	__aeabi_ui2d
 645              	.LVL98:
 646 02fe 0200     		movs	r2, r0
 647 0300 0B00     		movs	r3, r1
 648 0302 0020     		movs	r0, #0
 649 0304 2E49     		ldr	r1, .L46+24
 650 0306 FFF7FEFF 		bl	__aeabi_ddiv
 651              	.LVL99:
 652 030a FFF7FEFF 		bl	SetConversion
 653              	.LVL100:
 233:Motor_Unit_CAN.c ****                 break;
 654              		.loc 1 233 0
 655 030e 0320     		movs	r0, #3
 656 0310 FFF7FEFF 		bl	SetStateTo
 657              	.LVL101:
ARM GAS  C:\Users\casey\AppData\Local\Temp\ccZkbeSq.s 			page 20


 234:Motor_Unit_CAN.c ****             /*
 658              		.loc 1 234 0
 659 0314 B1E0     		b	.L4
 660              	.L31:
 242:Motor_Unit_CAN.c ****                 setmDegMin(GetPotmDegFromPacket(receivedPacket));
 661              		.loc 1 242 0
 662 0316 3000     		movs	r0, r6
 663 0318 FFF7FEFF 		bl	GetPotADCFromPacket
 664              	.LVL102:
 665 031c FFF7FEFF 		bl	setTickMin
 666              	.LVL103:
 243:Motor_Unit_CAN.c ****                 UpdateConversion();
 667              		.loc 1 243 0
 668 0320 3000     		movs	r0, r6
 669 0322 FFF7FEFF 		bl	GetPotmDegFromPacket
 670              	.LVL104:
 671 0326 FFF7FEFF 		bl	setmDegMin
 672              	.LVL105:
 244:Motor_Unit_CAN.c ****                 setUsingPot(1);
 673              		.loc 1 244 0
 674 032a FFF7FEFF 		bl	UpdateConversion
 675              	.LVL106:
 245:Motor_Unit_CAN.c ****                 SetStateTo(CHECK_CAN);
 676              		.loc 1 245 0
 677 032e 0120     		movs	r0, #1
 678 0330 FFF7FEFF 		bl	setUsingPot
 679              	.LVL107:
 246:Motor_Unit_CAN.c ****                 break;
 680              		.loc 1 246 0
 681 0334 0320     		movs	r0, #3
 682 0336 FFF7FEFF 		bl	SetStateTo
 683              	.LVL108:
 247:Motor_Unit_CAN.c ****                 
 684              		.loc 1 247 0
 685 033a 9EE0     		b	.L4
 686              	.L28:
 251:Motor_Unit_CAN.c ****                 setmDegMax(GetPotmDegFromPacket(receivedPacket));
 687              		.loc 1 251 0
 688 033c 3000     		movs	r0, r6
 689 033e FFF7FEFF 		bl	GetPotADCFromPacket
 690              	.LVL109:
 691 0342 FFF7FEFF 		bl	setTickMax
 692              	.LVL110:
 252:Motor_Unit_CAN.c ****                 UpdateConversion();
 693              		.loc 1 252 0
 694 0346 3000     		movs	r0, r6
 695 0348 FFF7FEFF 		bl	GetPotmDegFromPacket
 696              	.LVL111:
 697 034c FFF7FEFF 		bl	setmDegMax
 698              	.LVL112:
 253:Motor_Unit_CAN.c ****                 setUsingPot(1);
 699              		.loc 1 253 0
 700 0350 FFF7FEFF 		bl	UpdateConversion
 701              	.LVL113:
 254:Motor_Unit_CAN.c ****                 SetStateTo(CHECK_CAN);
 702              		.loc 1 254 0
 703 0354 0120     		movs	r0, #1
ARM GAS  C:\Users\casey\AppData\Local\Temp\ccZkbeSq.s 			page 21


 704 0356 FFF7FEFF 		bl	setUsingPot
 705              	.LVL114:
 255:Motor_Unit_CAN.c ****                 break;
 706              		.loc 1 255 0
 707 035a 0320     		movs	r0, #3
 708 035c FFF7FEFF 		bl	SetStateTo
 709              	.LVL115:
 256:Motor_Unit_CAN.c ****             case(ID_MOTOR_UNIT_ENC_INIT):
 710              		.loc 1 256 0
 711 0360 8BE0     		b	.L4
 712              	.L32:
 258:Motor_Unit_CAN.c ****                     set_PWM_M2(0, 0, 0);
 713              		.loc 1 258 0
 714 0362 FFF7FEFF 		bl	GetMode
 715              	.LVL116:
 716 0366 0128     		cmp	r0, #1
 717 0368 08D1     		bne	.L40
 259:Motor_Unit_CAN.c ****                     ClearPIDProgress();
 718              		.loc 1 259 0
 719 036a 0022     		movs	r2, #0
 720 036c 0021     		movs	r1, #0
 721 036e 0020     		movs	r0, #0
 722 0370 FFF7FEFF 		bl	set_PWM_M2
 723              	.LVL117:
 260:Motor_Unit_CAN.c ****                     DisablePID();
 724              		.loc 1 260 0
 725 0374 FFF7FEFF 		bl	ClearPIDProgress
 726              	.LVL118:
 261:Motor_Unit_CAN.c ****                 }
 727              		.loc 1 261 0
 728 0378 FFF7FEFF 		bl	DisablePID
 729              	.LVL119:
 730              	.L40:
 263:Motor_Unit_CAN.c ****                     counter = 0;
 731              		.loc 1 263 0
 732 037c 3000     		movs	r0, r6
 733 037e FFF7FEFF 		bl	GetEncoderZeroFromPacket
 734              	.LVL120:
 735 0382 0028     		cmp	r0, #0
 736 0384 02D0     		beq	.L41
 264:Motor_Unit_CAN.c ****                     //QuadDec_SetCounter(0);                     
 737              		.loc 1 264 0
 738 0386 0022     		movs	r2, #0
 739 0388 094B     		ldr	r3, .L46+8
 740 038a 1A60     		str	r2, [r3]
 741              	.L41:
 267:Motor_Unit_CAN.c ****                 break;
 742              		.loc 1 267 0
 743 038c 0320     		movs	r0, #3
 744 038e FFF7FEFF 		bl	SetStateTo
 745              	.LVL121:
 268:Motor_Unit_CAN.c ****             case(ID_MOTOR_UNIT_MAX_PID_PWM):
 746              		.loc 1 268 0
 747 0392 72E0     		b	.L4
 748              	.L30:
 270:Motor_Unit_CAN.c ****                 SetStateTo(CHECK_CAN);
 749              		.loc 1 270 0
ARM GAS  C:\Users\casey\AppData\Local\Temp\ccZkbeSq.s 			page 22


 750 0394 3000     		movs	r0, r6
 751 0396 FFF7FEFF 		bl	GetMaxPIDPWMFromPacket
 752              	.LVL122:
 753 039a FFF7FEFF 		bl	SetMaxPIDPWM
 754              	.LVL123:
 271:Motor_Unit_CAN.c ****                 break;    
 755              		.loc 1 271 0
 756 039e 0320     		movs	r0, #3
 757 03a0 FFF7FEFF 		bl	SetStateTo
 758              	.LVL124:
 272:Motor_Unit_CAN.c ****             
 759              		.loc 1 272 0
 760 03a4 69E0     		b	.L4
 761              	.L47:
 762 03a6 C046     		.align	2
 763              	.L46:
 764 03a8 00000000 		.word	StripLights_CLUT
 765 03ac 00000000 		.word	nextPWM_M1
 766 03b0 00000000 		.word	counter
 767 03b4 FFFF0000 		.word	65535
 768 03b8 00000000 		.word	nextPWM_M2
 769 03bc 00000000 		.word	millidegreeTarget_M2
 770 03c0 00F91541 		.word	1091959040
 771              	.L35:
 276:Motor_Unit_CAN.c ****                     bound_set1 = 1;
 772              		.loc 1 276 0
 773 03c4 3000     		movs	r0, r6
 774 03c6 FFF7FEFF 		bl	GetLimitSwNumFromPacket
 775              	.LVL125:
 776 03ca 0028     		cmp	r0, #0
 777 03cc 08D1     		bne	.L42
 277:Motor_Unit_CAN.c ****                     enc_Count_Lim1 = GetEncCountFromPacket(receivedPacket);
 778              		.loc 1 277 0
 779 03ce 0122     		movs	r2, #1
 780 03d0 2A4B     		ldr	r3, .L48
 781 03d2 1A70     		strb	r2, [r3]
 278:Motor_Unit_CAN.c ****                 } else if (GetLimitSwNumFromPacket(receivedPacket) == 1) {
 782              		.loc 1 278 0
 783 03d4 3000     		movs	r0, r6
 784 03d6 FFF7FEFF 		bl	GetEncCountFromPacket
 785              	.LVL126:
 786 03da 294B     		ldr	r3, .L48+4
 787 03dc 1860     		str	r0, [r3]
 788 03de 4CE0     		b	.L4
 789              	.L42:
 279:Motor_Unit_CAN.c ****                     bound_set2 = 1;
 790              		.loc 1 279 0
 791 03e0 0128     		cmp	r0, #1
 792 03e2 4AD1     		bne	.L4
 280:Motor_Unit_CAN.c ****                     enc_Count_Lim2 = GetEncCountFromPacket(receivedPacket);
 793              		.loc 1 280 0
 794 03e4 0122     		movs	r2, #1
 795 03e6 274B     		ldr	r3, .L48+8
 796 03e8 1A70     		strb	r2, [r3]
 281:Motor_Unit_CAN.c ****                 }
 797              		.loc 1 281 0
 798 03ea 3000     		movs	r0, r6
ARM GAS  C:\Users\casey\AppData\Local\Temp\ccZkbeSq.s 			page 23


 799 03ec FFF7FEFF 		bl	GetEncCountFromPacket
 800              	.LVL127:
 801 03f0 254B     		ldr	r3, .L48+12
 802 03f2 1860     		str	r0, [r3]
 803 03f4 41E0     		b	.L4
 804              	.L33:
 287:Motor_Unit_CAN.c ****                 GotoUninitState();
 805              		.loc 1 287 0
 806 03f6 0022     		movs	r2, #0
 807 03f8 0021     		movs	r1, #0
 808 03fa 0020     		movs	r0, #0
 809 03fc FFF7FEFF 		bl	set_PWM_M2
 810              	.LVL128:
 288:Motor_Unit_CAN.c ****                 #ifdef RGB_LED_ARRAY
 811              		.loc 1 288 0
 812 0400 FFF7FEFF 		bl	GotoUninitState
 813              	.LVL129:
 290:Motor_Unit_CAN.c ****                 StripLights_Pixel(0, 0, get_color_packet(0,0,255));
 814              		.loc 1 290 0
 815 0404 214B     		ldr	r3, .L48+16
 816 0406 186E     		ldr	r0, [r3, #96]
 817 0408 FFF7FEFF 		bl	StripLights_MemClear
 818              	.LVL130:
 291:Motor_Unit_CAN.c ****                 StripLights_Trigger(1);
 819              		.loc 1 291 0
 820 040c FF22     		movs	r2, #255
 821 040e 0021     		movs	r1, #0
 822 0410 0020     		movs	r0, #0
 823 0412 FFF7FEFF 		bl	get_color_packet
 824              	.LVL131:
 825 0416 0200     		movs	r2, r0
 826 0418 0021     		movs	r1, #0
 827 041a 0020     		movs	r0, #0
 828 041c FFF7FEFF 		bl	StripLights_Pixel
 829              	.LVL132:
 292:Motor_Unit_CAN.c ****                 #endif
 830              		.loc 1 292 0
 831 0420 0120     		movs	r0, #1
 832 0422 FFF7FEFF 		bl	StripLights_Trigger
 833              	.LVL133:
 294:Motor_Unit_CAN.c ****             
 834              		.loc 1 294 0
 835 0426 28E0     		b	.L4
 836              	.L34:
 297:Motor_Unit_CAN.c ****                     GetSenderDeviceSerialNumber(receivedPacket));
 837              		.loc 1 297 0
 838 0428 3000     		movs	r0, r6
 839 042a FFF7FEFF 		bl	GetSenderDeviceGroupCode
 840              	.LVL134:
 841 042e 0400     		movs	r4, r0
 842              	.LVL135:
 843 0430 3000     		movs	r0, r6
 844 0432 FFF7FEFF 		bl	GetSenderDeviceSerialNumber
 845              	.LVL136:
 846 0436 0200     		movs	r2, r0
 847 0438 2100     		movs	r1, r4
 848 043a 3800     		movs	r0, r7
ARM GAS  C:\Users\casey\AppData\Local\Temp\ccZkbeSq.s 			page 24


 849 043c FFF7FEFF 		bl	AssembleChipTypeReportPacket
 850              	.LVL137:
 299:Motor_Unit_CAN.c ****                 break;
 851              		.loc 1 299 0
 852 0440 3800     		movs	r0, r7
 853 0442 FFF7FEFF 		bl	SendCANPacket
 854              	.LVL138:
 300:Motor_Unit_CAN.c **** 
 855              		.loc 1 300 0
 856 0446 18E0     		b	.L4
 857              	.LVL139:
 858              	.L18:
 311:Motor_Unit_CAN.c ****                     SetStateTo(CALC_PID);
 859              		.loc 1 311 0
 860 0448 FFF7FEFF 		bl	GetMode
 861              	.LVL140:
 862 044c 0128     		cmp	r0, #1
 863 044e 03D1     		bne	.L43
 312:Motor_Unit_CAN.c ****                 } else if(GetMode() == MOTOR_UNIT_MODE_PWM){ //skips PWM state to not reset saftey 
 864              		.loc 1 312 0
 865 0450 0130     		adds	r0, r0, #1
 866 0452 FFF7FEFF 		bl	SetStateTo
 867              	.LVL141:
 868 0456 0AE0     		b	.L44
 869              	.L43:
 313:Motor_Unit_CAN.c ****                     SetStateTo(CHECK_CAN);
 870              		.loc 1 313 0
 871 0458 FFF7FEFF 		bl	GetMode
 872              	.LVL142:
 873 045c 0028     		cmp	r0, #0
 874 045e 03D1     		bne	.L45
 314:Motor_Unit_CAN.c ****                 } else {
 875              		.loc 1 314 0
 876 0460 0330     		adds	r0, r0, #3
 877 0462 FFF7FEFF 		bl	SetStateTo
 878              	.LVL143:
 879 0466 02E0     		b	.L44
 880              	.L45:
 316:Motor_Unit_CAN.c ****                 }
 881              		.loc 1 316 0
 882 0468 0320     		movs	r0, #3
 883 046a FFF7FEFF 		bl	SetStateTo
 884              	.LVL144:
 885              	.L44:
 320:Motor_Unit_CAN.c ****                     DisplayErrorCode(MOTOR_ERROR_INVALID_PACKET);
 886              		.loc 1 320 0
 887 046e 084B     		ldr	r3, .L48+20
 888 0470 9C42     		cmp	r4, r3
 889 0472 02D0     		beq	.L4
 321:Motor_Unit_CAN.c ****                 }
 890              		.loc 1 321 0
 891 0474 0020     		movs	r0, #0
 892 0476 FFF7FEFF 		bl	DisplayErrorCode
 893              	.LVL145:
 894              	.L4:
 895              	.LBE2:
 326:Motor_Unit_CAN.c **** 
ARM GAS  C:\Users\casey\AppData\Local\Temp\ccZkbeSq.s 			page 25


 896              		.loc 1 326 0
 897              		@ sp needed
 898              	.LVL146:
 899              	.LVL147:
 900 047a F8BD     		pop	{r3, r4, r5, r6, r7, pc}
 901              	.L49:
 902              		.align	2
 903              	.L48:
 904 047c 00000000 		.word	bound_set1
 905 0480 00000000 		.word	enc_Count_Lim1
 906 0484 00000000 		.word	bound_set2
 907 0488 00000000 		.word	enc_Count_Lim2
 908 048c 00000000 		.word	StripLights_CLUT
 909 0490 FFFF0000 		.word	65535
 910              		.cfi_endproc
 911              	.LFE36:
 912              		.size	NextStateFromCAN, .-NextStateFromCAN
 913              		.text
 914              	.Letext0:
 915              		.file 2 "c:\\program files (x86)\\cypress\\psoc creator\\4.4\\psoc creator\\import\\gnu\\arm\\5.4.
 916              		.file 3 "c:\\program files (x86)\\cypress\\psoc creator\\4.4\\psoc creator\\import\\gnu\\arm\\5.4.
 917              		.file 4 "../CANLib/CANPacket.h"
 918              		.file 5 "Generated_Source\\PSoC4/cytypes.h"
 919              		.file 6 "PositionPID.h"
 920              		.file 7 "../CANLib/CANCommon.h"
 921              		.file 8 "../CANLib/Port_swerve.h"
 922              		.file 9 "../CANLib/CANMotorUnit.h"
 923              		.file 10 "MotorDrive.h"
 924              		.file 11 "Generated_Source\\PSoC4/StripLights.h"
 925              		.file 12 "LED_Array.h"
 926              		.file 13 "Motor_Unit_FSM.h"
 927              		.file 14 "main.h"