ARM GAS  C:\Users\mewin\AppData\Local\Temp\ccLKSKl0.s 			page 1


   1              		.syntax unified
   2              		.cpu cortex-m0
   3              		.fpu softvfp
   4              		.eabi_attribute 20, 1
   5              		.eabi_attribute 21, 1
   6              		.eabi_attribute 23, 3
   7              		.eabi_attribute 24, 1
   8              		.eabi_attribute 25, 1
   9              		.eabi_attribute 26, 1
  10              		.eabi_attribute 30, 1
  11              		.eabi_attribute 34, 0
  12              		.eabi_attribute 18, 4
  13              		.thumb
  14              		.syntax unified
  15              		.file	"MotorDrive.c"
  16              		.text
  17              	.Ltext0:
  18              		.cfi_sections	.debug_frame
  19              		.section	.text.set_PWM_M1,"ax",%progbits
  20              		.align	2
  21              		.global	set_PWM_M1
  22              		.code	16
  23              		.thumb_func
  24              		.type	set_PWM_M1, %function
  25              	set_PWM_M1:
  26              	.LFB35:
  27              		.file 1 "MotorDrive.c"
   1:MotorDrive.c  **** /* ========================================
   2:MotorDrive.c  ****  *
   3:MotorDrive.c  ****  * Copyright YOUR COMPANY, THE YEAR
   4:MotorDrive.c  ****  * All Rights Reserved
   5:MotorDrive.c  ****  * UNPUBLISHED, LICENSED SOFTWARE.
   6:MotorDrive.c  ****  *
   7:MotorDrive.c  ****  * CONFIDENTIAL AND PROPRIETARY INFORMATION
   8:MotorDrive.c  ****  * WHICH IS THE PROPERTY OF your company.
   9:MotorDrive.c  ****  *
  10:MotorDrive.c  ****  * ========================================
  11:MotorDrive.c  **** */
  12:MotorDrive.c  **** #include <project.h>
  13:MotorDrive.c  **** #include <stdio.h>
  14:MotorDrive.c  **** #include <stdint.h>
  15:MotorDrive.c  **** #include <stdlib.h>
  16:MotorDrive.c  **** #include "main.h"
  17:MotorDrive.c  **** #include "MotorDrive.h"
  18:MotorDrive.c  **** 
  19:MotorDrive.c  **** uint8_t invalidate = 0;     // TODO: make sure this isn't a motor specific variable
  20:MotorDrive.c  **** extern char txData[TX_DATA_SIZE];
  21:MotorDrive.c  **** 
  22:MotorDrive.c  **** int32_t currPWM_Drive = 0;
  23:MotorDrive.c  **** int32_t currPWM_Swivel = 0;
  24:MotorDrive.c  **** 
  25:MotorDrive.c  **** 
  26:MotorDrive.c  **** // Drive Motor, Motor 1 in Top Design
  27:MotorDrive.c  **** // takes between -255 and 255
  28:MotorDrive.c  **** void set_PWM_M1(int16_t compare, uint8_t disable_limit, uint8_t limitSW) {  //limitSw prev uint8
  28              		.loc 1 28 0
  29              		.cfi_startproc
ARM GAS  C:\Users\mewin\AppData\Local\Temp\ccLKSKl0.s 			page 2


  30              		@ args = 0, pretend = 0, frame = 32
  31              		@ frame_needed = 0, uses_anonymous_args = 0
  32              	.LVL0:
  33 0000 70B5     		push	{r4, r5, r6, lr}
  34              		.cfi_def_cfa_offset 16
  35              		.cfi_offset 4, -16
  36              		.cfi_offset 5, -12
  37              		.cfi_offset 6, -8
  38              		.cfi_offset 14, -4
  39 0002 88B0     		sub	sp, sp, #32
  40              		.cfi_def_cfa_offset 48
  41 0004 0400     		movs	r4, r0
  42 0006 0E00     		movs	r6, r1
  43 0008 1500     		movs	r5, r2
  29:MotorDrive.c  ****     #ifdef PRINT_PWM_COMMAND
  30:MotorDrive.c  ****     sprintf(txData, "PWM:%d disable_limit: %d\r\n",compare,disable_limit);
  31:MotorDrive.c  ****     UART_UartPutString(txData); 
  32:MotorDrive.c  ****     #endif
  33:MotorDrive.c  ****     //test
  34:MotorDrive.c  ****     char out[32];
  35:MotorDrive.c  ****     UART_UartPutString("compare val m1: ");
  44              		.loc 1 35 0
  45 000a 1B48     		ldr	r0, .L7
  46              	.LVL1:
  47 000c FFF7FEFF 		bl	UART_UartPutString
  48              	.LVL2:
  36:MotorDrive.c  ****     UART_UartPutString(itoa(compare, out, 10));
  49              		.loc 1 36 0
  50 0010 0A22     		movs	r2, #10
  51 0012 6946     		mov	r1, sp
  52 0014 2000     		movs	r0, r4
  53 0016 FFF7FEFF 		bl	itoa
  54              	.LVL3:
  55 001a FFF7FEFF 		bl	UART_UartPutString
  56              	.LVL4:
  37:MotorDrive.c  ****     UART_UartPutString("\n\r");
  57              		.loc 1 37 0
  58 001e 1748     		ldr	r0, .L7+4
  59 0020 FFF7FEFF 		bl	UART_UartPutString
  60              	.LVL5:
  38:MotorDrive.c  ****         //show results
  39:MotorDrive.c  **** //        UART_UartPutString(itoa(Hum_val, out1, 10));
  40:MotorDrive.c  ****         //UART_UartPutString("\n\r");
  41:MotorDrive.c  **** //        UART_UartPutString(itoa(Temp_val, out1, 10));
  42:MotorDrive.c  ****     invalidate = 0;     
  61              		.loc 1 42 0
  62 0024 0022     		movs	r2, #0
  63 0026 164B     		ldr	r3, .L7+8
  64 0028 1A70     		strb	r2, [r3]
  43:MotorDrive.c  ****     if (compare < 0 && (!(limitSW & 0b01) || disable_limit) ) {
  65              		.loc 1 43 0
  66 002a 002C     		cmp	r4, #0
  67 002c 0CDA     		bge	.L2
  68              		.loc 1 43 0 is_stmt 0 discriminator 1
  69 002e EB07     		lsls	r3, r5, #31
  70 0030 01D5     		bpl	.L3
  71              		.loc 1 43 0 discriminator 2
ARM GAS  C:\Users\mewin\AppData\Local\Temp\ccLKSKl0.s 			page 3


  72 0032 002E     		cmp	r6, #0
  73 0034 08D0     		beq	.L2
  74              	.L3:
  44:MotorDrive.c  ****         Motor1Direction_Write(0);
  75              		.loc 1 44 0 is_stmt 1
  76 0036 0020     		movs	r0, #0
  77 0038 FFF7FEFF 		bl	Motor1Direction_Write
  78              	.LVL6:
  45:MotorDrive.c  ****         currPWM_Drive = compare;
  79              		.loc 1 45 0
  80 003c 104B     		ldr	r3, .L7+8
  81 003e 5C60     		str	r4, [r3, #4]
  46:MotorDrive.c  ****         PWM_Motor1_WriteCompare(-compare);
  82              		.loc 1 46 0
  83 0040 6042     		rsbs	r0, r4, #0
  84 0042 FFF7FEFF 		bl	PWM_Motor1_WriteCompare
  85              	.LVL7:
  86 0046 14E0     		b	.L1
  87              	.L2:
  47:MotorDrive.c  ****     } else if (compare > 0 && (!(limitSW & 0b10) || disable_limit) ){
  88              		.loc 1 47 0
  89 0048 002C     		cmp	r4, #0
  90 004a 0CDD     		ble	.L5
  91              		.loc 1 47 0 is_stmt 0 discriminator 1
  92 004c AB07     		lsls	r3, r5, #30
  93 004e 01D5     		bpl	.L6
  94              		.loc 1 47 0 discriminator 2
  95 0050 002E     		cmp	r6, #0
  96 0052 08D0     		beq	.L5
  97              	.L6:
  48:MotorDrive.c  ****         Motor1Direction_Write(1);
  98              		.loc 1 48 0 is_stmt 1
  99 0054 0120     		movs	r0, #1
 100 0056 FFF7FEFF 		bl	Motor1Direction_Write
 101              	.LVL8:
  49:MotorDrive.c  ****         currPWM_Drive = compare;
 102              		.loc 1 49 0
 103 005a 094B     		ldr	r3, .L7+8
 104 005c 5C60     		str	r4, [r3, #4]
  50:MotorDrive.c  ****         PWM_Motor1_WriteCompare(compare);
 105              		.loc 1 50 0
 106 005e 2000     		movs	r0, r4
 107 0060 FFF7FEFF 		bl	PWM_Motor1_WriteCompare
 108              	.LVL9:
 109 0064 05E0     		b	.L1
 110              	.L5:
  51:MotorDrive.c  ****     } else {
  52:MotorDrive.c  ****         currPWM_Drive = 0;
 111              		.loc 1 52 0
 112 0066 0022     		movs	r2, #0
 113 0068 054B     		ldr	r3, .L7+8
 114 006a 5A60     		str	r2, [r3, #4]
  53:MotorDrive.c  ****         PWM_Motor1_WriteCompare(0);
 115              		.loc 1 53 0
 116 006c 0020     		movs	r0, #0
 117 006e FFF7FEFF 		bl	PWM_Motor1_WriteCompare
 118              	.LVL10:
ARM GAS  C:\Users\mewin\AppData\Local\Temp\ccLKSKl0.s 			page 4


 119              	.L1:
  54:MotorDrive.c  ****     }
  55:MotorDrive.c  **** }
 120              		.loc 1 55 0
 121 0072 08B0     		add	sp, sp, #32
 122              		@ sp needed
 123 0074 70BD     		pop	{r4, r5, r6, pc}
 124              	.L8:
 125 0076 C046     		.align	2
 126              	.L7:
 127 0078 00000000 		.word	.LC0
 128 007c 14000000 		.word	.LC2
 129 0080 00000000 		.word	.LANCHOR0
 130              		.cfi_endproc
 131              	.LFE35:
 132              		.size	set_PWM_M1, .-set_PWM_M1
 133              		.section	.text.set_PWM_M2,"ax",%progbits
 134              		.align	2
 135              		.global	set_PWM_M2
 136              		.code	16
 137              		.thumb_func
 138              		.type	set_PWM_M2, %function
 139              	set_PWM_M2:
 140              	.LFB36:
  56:MotorDrive.c  **** 
  57:MotorDrive.c  **** //  Swivel Motor, Motor 2 in Top Design
  58:MotorDrive.c  **** void set_PWM_M2(int16_t compare, uint8_t disable_limit, uint8_t limitSW) { 
 141              		.loc 1 58 0
 142              		.cfi_startproc
 143              		@ args = 0, pretend = 0, frame = 32
 144              		@ frame_needed = 0, uses_anonymous_args = 0
 145              	.LVL11:
 146 0000 70B5     		push	{r4, r5, r6, lr}
 147              		.cfi_def_cfa_offset 16
 148              		.cfi_offset 4, -16
 149              		.cfi_offset 5, -12
 150              		.cfi_offset 6, -8
 151              		.cfi_offset 14, -4
 152 0002 88B0     		sub	sp, sp, #32
 153              		.cfi_def_cfa_offset 48
 154 0004 0400     		movs	r4, r0
 155 0006 0E00     		movs	r6, r1
 156 0008 1500     		movs	r5, r2
  59:MotorDrive.c  ****     #ifdef PRINT_PWM_COMMAND
  60:MotorDrive.c  ****     sprintf(txData, "PWM:%d disable_limit: %d\r\n",compare,disable_limit);
  61:MotorDrive.c  ****     UART_UartPutString(txData); 
  62:MotorDrive.c  ****     #endif
  63:MotorDrive.c  ****     
  64:MotorDrive.c  ****     invalidate = 0;    
 157              		.loc 1 64 0
 158 000a 0022     		movs	r2, #0
 159              	.LVL12:
 160 000c 1A4B     		ldr	r3, .L15
 161 000e 1A70     		strb	r2, [r3]
  65:MotorDrive.c  ****     char out[32];
  66:MotorDrive.c  ****     UART_UartPutString("compare val m2: ");
 162              		.loc 1 66 0
ARM GAS  C:\Users\mewin\AppData\Local\Temp\ccLKSKl0.s 			page 5


 163 0010 1A48     		ldr	r0, .L15+4
 164              	.LVL13:
 165 0012 FFF7FEFF 		bl	UART_UartPutString
 166              	.LVL14:
  67:MotorDrive.c  ****     UART_UartPutString(itoa(compare, out, 10));
 167              		.loc 1 67 0
 168 0016 0A22     		movs	r2, #10
 169 0018 6946     		mov	r1, sp
 170 001a 2000     		movs	r0, r4
 171 001c FFF7FEFF 		bl	itoa
 172              	.LVL15:
 173 0020 FFF7FEFF 		bl	UART_UartPutString
 174              	.LVL16:
  68:MotorDrive.c  ****     UART_UartPutString("\n\r");
 175              		.loc 1 68 0
 176 0024 1648     		ldr	r0, .L15+8
 177 0026 FFF7FEFF 		bl	UART_UartPutString
 178              	.LVL17:
  69:MotorDrive.c  ****     if (compare < 0 && (!(limitSW & 0b01) || disable_limit) ) {
 179              		.loc 1 69 0
 180 002a 002C     		cmp	r4, #0
 181 002c 0CDA     		bge	.L10
 182              		.loc 1 69 0 is_stmt 0 discriminator 1
 183 002e EB07     		lsls	r3, r5, #31
 184 0030 01D5     		bpl	.L11
 185              		.loc 1 69 0 discriminator 2
 186 0032 002E     		cmp	r6, #0
 187 0034 08D0     		beq	.L10
 188              	.L11:
  70:MotorDrive.c  ****         Motor2Direction_Write(0);
 189              		.loc 1 70 0 is_stmt 1
 190 0036 0020     		movs	r0, #0
 191 0038 FFF7FEFF 		bl	Motor2Direction_Write
 192              	.LVL18:
  71:MotorDrive.c  ****         currPWM_Swivel = compare;
 193              		.loc 1 71 0
 194 003c 0E4B     		ldr	r3, .L15
 195 003e 9C60     		str	r4, [r3, #8]
  72:MotorDrive.c  ****         PWM_Motor2_WriteCompare(-compare);
 196              		.loc 1 72 0
 197 0040 6042     		rsbs	r0, r4, #0
 198 0042 FFF7FEFF 		bl	PWM_Motor2_WriteCompare
 199              	.LVL19:
 200 0046 14E0     		b	.L9
 201              	.L10:
  73:MotorDrive.c  ****     } else if (compare > 0 && (!(limitSW & 0b10) || disable_limit) ){
 202              		.loc 1 73 0
 203 0048 002C     		cmp	r4, #0
 204 004a 0CDD     		ble	.L13
 205              		.loc 1 73 0 is_stmt 0 discriminator 1
 206 004c AB07     		lsls	r3, r5, #30
 207 004e 01D5     		bpl	.L14
 208              		.loc 1 73 0 discriminator 2
 209 0050 002E     		cmp	r6, #0
 210 0052 08D0     		beq	.L13
 211              	.L14:
  74:MotorDrive.c  ****         Motor2Direction_Write(1);
ARM GAS  C:\Users\mewin\AppData\Local\Temp\ccLKSKl0.s 			page 6


 212              		.loc 1 74 0 is_stmt 1
 213 0054 0120     		movs	r0, #1
 214 0056 FFF7FEFF 		bl	Motor2Direction_Write
 215              	.LVL20:
  75:MotorDrive.c  ****         currPWM_Swivel = compare;
 216              		.loc 1 75 0
 217 005a 074B     		ldr	r3, .L15
 218 005c 9C60     		str	r4, [r3, #8]
  76:MotorDrive.c  ****         PWM_Motor2_WriteCompare(compare);
 219              		.loc 1 76 0
 220 005e 2000     		movs	r0, r4
 221 0060 FFF7FEFF 		bl	PWM_Motor2_WriteCompare
 222              	.LVL21:
 223 0064 05E0     		b	.L9
 224              	.L13:
  77:MotorDrive.c  ****     } else {
  78:MotorDrive.c  ****         currPWM_Swivel = 0;
 225              		.loc 1 78 0
 226 0066 0022     		movs	r2, #0
 227 0068 034B     		ldr	r3, .L15
 228 006a 9A60     		str	r2, [r3, #8]
  79:MotorDrive.c  ****         PWM_Motor2_WriteCompare(0);
 229              		.loc 1 79 0
 230 006c 0020     		movs	r0, #0
 231 006e FFF7FEFF 		bl	PWM_Motor2_WriteCompare
 232              	.LVL22:
 233              	.L9:
  80:MotorDrive.c  ****     }
  81:MotorDrive.c  **** }
 234              		.loc 1 81 0
 235 0072 08B0     		add	sp, sp, #32
 236              		@ sp needed
 237 0074 70BD     		pop	{r4, r5, r6, pc}
 238              	.L16:
 239 0076 C046     		.align	2
 240              	.L15:
 241 0078 00000000 		.word	.LANCHOR0
 242 007c 18000000 		.word	.LC6
 243 0080 14000000 		.word	.LC2
 244              		.cfi_endproc
 245              	.LFE36:
 246              		.size	set_PWM_M2, .-set_PWM_M2
 247              		.section	.text.GetCurrentPWM_M1,"ax",%progbits
 248              		.align	2
 249              		.global	GetCurrentPWM_M1
 250              		.code	16
 251              		.thumb_func
 252              		.type	GetCurrentPWM_M1, %function
 253              	GetCurrentPWM_M1:
 254              	.LFB37:
  82:MotorDrive.c  **** 
  83:MotorDrive.c  **** int16_t GetCurrentPWM_M1() {
 255              		.loc 1 83 0
 256              		.cfi_startproc
 257              		@ args = 0, pretend = 0, frame = 0
 258              		@ frame_needed = 0, uses_anonymous_args = 0
 259              		@ link register save eliminated.
ARM GAS  C:\Users\mewin\AppData\Local\Temp\ccLKSKl0.s 			page 7


  84:MotorDrive.c  ****     return currPWM_Drive;
 260              		.loc 1 84 0
 261 0000 014B     		ldr	r3, .L18
 262 0002 0420     		movs	r0, #4
 263 0004 185E     		ldrsh	r0, [r3, r0]
  85:MotorDrive.c  **** }
 264              		.loc 1 85 0
 265              		@ sp needed
 266 0006 7047     		bx	lr
 267              	.L19:
 268              		.align	2
 269              	.L18:
 270 0008 00000000 		.word	.LANCHOR0
 271              		.cfi_endproc
 272              	.LFE37:
 273              		.size	GetCurrentPWM_M1, .-GetCurrentPWM_M1
 274              		.section	.text.GetCurrentPWM_M2,"ax",%progbits
 275              		.align	2
 276              		.global	GetCurrentPWM_M2
 277              		.code	16
 278              		.thumb_func
 279              		.type	GetCurrentPWM_M2, %function
 280              	GetCurrentPWM_M2:
 281              	.LFB38:
  86:MotorDrive.c  **** 
  87:MotorDrive.c  **** int16_t GetCurrentPWM_M2() {
 282              		.loc 1 87 0
 283              		.cfi_startproc
 284              		@ args = 0, pretend = 0, frame = 0
 285              		@ frame_needed = 0, uses_anonymous_args = 0
 286              		@ link register save eliminated.
  88:MotorDrive.c  ****     return currPWM_Swivel;
 287              		.loc 1 88 0
 288 0000 014B     		ldr	r3, .L21
 289 0002 0820     		movs	r0, #8
 290 0004 185E     		ldrsh	r0, [r3, r0]
  89:MotorDrive.c  **** }
 291              		.loc 1 89 0
 292              		@ sp needed
 293 0006 7047     		bx	lr
 294              	.L22:
 295              		.align	2
 296              	.L21:
 297 0008 00000000 		.word	.LANCHOR0
 298              		.cfi_endproc
 299              	.LFE38:
 300              		.size	GetCurrentPWM_M2, .-GetCurrentPWM_M2
 301              		.global	currPWM_Swivel
 302              		.global	currPWM_Drive
 303              		.global	invalidate
 304              		.section	.rodata.str1.4,"aMS",%progbits,1
 305              		.align	2
 306              	.LC0:
 307 0000 636F6D70 		.ascii	"compare val m1: \000"
 307      61726520 
 307      76616C20 
 307      6D313A20 
ARM GAS  C:\Users\mewin\AppData\Local\Temp\ccLKSKl0.s 			page 8


 307      00
 308 0011 000000   		.space	3
 309              	.LC2:
 310 0014 0A0D00   		.ascii	"\012\015\000"
 311 0017 00       		.space	1
 312              	.LC6:
 313 0018 636F6D70 		.ascii	"compare val m2: \000"
 313      61726520 
 313      76616C20 
 313      6D323A20 
 313      00
 314              		.bss
 315              		.align	2
 316              		.set	.LANCHOR0,. + 0
 317              		.type	invalidate, %object
 318              		.size	invalidate, 1
 319              	invalidate:
 320 0000 00       		.space	1
 321 0001 000000   		.space	3
 322              		.type	currPWM_Drive, %object
 323              		.size	currPWM_Drive, 4
 324              	currPWM_Drive:
 325 0004 00000000 		.space	4
 326              		.type	currPWM_Swivel, %object
 327              		.size	currPWM_Swivel, 4
 328              	currPWM_Swivel:
 329 0008 00000000 		.space	4
 330              		.text
 331              	.Letext0:
 332              		.file 2 "c:\\program files (x86)\\cypress\\psoc creator\\4.4\\psoc creator\\import\\gnu\\arm\\5.4.
 333              		.file 3 "c:\\program files (x86)\\cypress\\psoc creator\\4.4\\psoc creator\\import\\gnu\\arm\\5.4.
 334              		.file 4 "Generated_Source\\PSoC4/UART_SPI_UART.h"
 335              		.file 5 "c:\\program files (x86)\\cypress\\psoc creator\\4.4\\psoc creator\\import\\gnu\\arm\\5.4.
 336              		.file 6 "Generated_Source\\PSoC4/Motor1Direction.h"
 337              		.file 7 "Generated_Source\\PSoC4/PWM_Motor1.h"
 338              		.file 8 "Generated_Source\\PSoC4/Motor2Direction.h"
 339              		.file 9 "Generated_Source\\PSoC4/PWM_Motor2.h"