ARM GAS  C:\Users\casey\AppData\Local\Temp\cciudmPd.s 			page 1


   1              		.syntax unified
   2              		.cpu cortex-m0
   3              		.fpu softvfp
   4              		.eabi_attribute 20, 1
   5              		.eabi_attribute 21, 1
   6              		.eabi_attribute 23, 3
   7              		.eabi_attribute 24, 1
   8              		.eabi_attribute 25, 1
   9              		.eabi_attribute 26, 1
  10              		.eabi_attribute 30, 1
  11              		.eabi_attribute 34, 0
  12              		.eabi_attribute 18, 4
  13              		.thumb
  14              		.syntax unified
  15              		.file	"PortPSOC_swerve.c"
  16              		.text
  17              	.Ltext0:
  18              		.cfi_sections	.debug_frame
  19              		.section	.text.InitCAN,"ax",%progbits
  20              		.align	2
  21              		.global	InitCAN
  22              		.code	16
  23              		.thumb_func
  24              		.type	InitCAN, %function
  25              	InitCAN:
  26              	.LFB34:
  27              		.file 1 "..\\CANLib\\PortFiles\\PortPSOC_swerve.c"
   1:..\CANLib\PortFiles/PortPSOC_swerve.c **** /*
   2:..\CANLib\PortFiles/PortPSOC_swerve.c ****  * Authors: Austin Chan
   3:..\CANLib\PortFiles/PortPSOC_swerve.c ****  * Documentation: ClickUp
   4:..\CANLib\PortFiles/PortPSOC_swerve.c ****  * 
   5:..\CANLib\PortFiles/PortPSOC_swerve.c ****  * Port specific notes:
   6:..\CANLib\PortFiles/PortPSOC_swerve.c ****  * Design must include a CAN block called CAN (not CAN0 or variation)
   7:..\CANLib\PortFiles/PortPSOC_swerve.c ****  * Must auto generate code within PSoC IDE to use APIs
   8:..\CANLib\PortFiles/PortPSOC_swerve.c ****  */
   9:..\CANLib\PortFiles/PortPSOC_swerve.c **** #if CHIP_TYPE == CHIP_TYPE_PSOC_CY8C4248AZI_L485
  10:..\CANLib\PortFiles/PortPSOC_swerve.c **** 
  11:..\CANLib\PortFiles/PortPSOC_swerve.c **** #include "../Port.h"
  12:..\CANLib\PortFiles/PortPSOC_swerve.c **** #include "project.h"
  13:..\CANLib\PortFiles/PortPSOC_swerve.c ****     
  14:..\CANLib\PortFiles/PortPSOC_swerve.c **** //Flag internal to this port, 0xFF if no message waiting, doubles as mailbox number
  15:..\CANLib\PortFiles/PortPSOC_swerve.c **** volatile uint8_t messagePresentFlag = 0xFF;
  16:..\CANLib\PortFiles/PortPSOC_swerve.c **** volatile uint8_t messageReadFlag = 0x0;
  17:..\CANLib\PortFiles/PortPSOC_swerve.c **** uint8_t FIFOSize(void);
  18:..\CANLib\PortFiles/PortPSOC_swerve.c **** void countAddFIFO(void);
  19:..\CANLib\PortFiles/PortPSOC_swerve.c **** void countRemoveFIFO(void);
  20:..\CANLib\PortFiles/PortPSOC_swerve.c **** 
  21:..\CANLib\PortFiles/PortPSOC_swerve.c **** #define FIFO_SIZE   16
  22:..\CANLib\PortFiles/PortPSOC_swerve.c **** volatile CANPacket latestMessage[FIFO_SIZE];//internal to this port acts like a FIFO with 10 packet
  23:..\CANLib\PortFiles/PortPSOC_swerve.c **** volatile uint8_t latestMessageHead = 0; //which index to read
  24:..\CANLib\PortFiles/PortPSOC_swerve.c **** volatile uint8_t latestMessageTail = 0; //which index to write to next
  25:..\CANLib\PortFiles/PortPSOC_swerve.c **** volatile uint8_t latestMessageFull = 0; //FIFO is full
  26:..\CANLib\PortFiles/PortPSOC_swerve.c **** 
  27:..\CANLib\PortFiles/PortPSOC_swerve.c **** #define STATUS_MAILBOX0 0x1
  28:..\CANLib\PortFiles/PortPSOC_swerve.c **** #define STATUS_MAILBOX1 0x2
  29:..\CANLib\PortFiles/PortPSOC_swerve.c **** #define STATUS_MAILBOX2 0x4
  30:..\CANLib\PortFiles/PortPSOC_swerve.c **** #define STATUS_MAILBOX3 0x8
ARM GAS  C:\Users\casey\AppData\Local\Temp\cciudmPd.s 			page 2


  31:..\CANLib\PortFiles/PortPSOC_swerve.c **** #define STATUS_MAILBOX4 0x10
  32:..\CANLib\PortFiles/PortPSOC_swerve.c **** #define STATUS_MAILBOX5 0x20
  33:..\CANLib\PortFiles/PortPSOC_swerve.c **** 
  34:..\CANLib\PortFiles/PortPSOC_swerve.c **** 
  35:..\CANLib\PortFiles/PortPSOC_swerve.c **** CY_ISR_PROTO(CAN_FLAG_ISR);
  36:..\CANLib\PortFiles/PortPSOC_swerve.c **** 
  37:..\CANLib\PortFiles/PortPSOC_swerve.c **** int deviceAddressA;
  38:..\CANLib\PortFiles/PortPSOC_swerve.c **** int deviceAddressB;
  39:..\CANLib\PortFiles/PortPSOC_swerve.c **** int deviceGroup;
  40:..\CANLib\PortFiles/PortPSOC_swerve.c **** CAN_RX_CFG rxMailbox;
  41:..\CANLib\PortFiles/PortPSOC_swerve.c **** //Added two device addresses instead of 1 for simultaneous control of the two swerve motors
  42:..\CANLib\PortFiles/PortPSOC_swerve.c **** void InitCAN(int deviceGroupInput, int deviceAddress)
  43:..\CANLib\PortFiles/PortPSOC_swerve.c **** {
  28              		.loc 1 43 0
  29              		.cfi_startproc
  30              		@ args = 0, pretend = 0, frame = 0
  31              		@ frame_needed = 0, uses_anonymous_args = 0
  32              	.LVL0:
  33 0000 F0B5     		push	{r4, r5, r6, r7, lr}
  34              		.cfi_def_cfa_offset 20
  35              		.cfi_offset 4, -20
  36              		.cfi_offset 5, -16
  37              		.cfi_offset 6, -12
  38              		.cfi_offset 7, -8
  39              		.cfi_offset 14, -4
  40 0002 4746     		mov	r7, r8
  41 0004 80B4     		push	{r7}
  42              		.cfi_def_cfa_offset 24
  43              		.cfi_offset 8, -24
  44 0006 0400     		movs	r4, r0
  45 0008 0D00     		movs	r5, r1
  44:..\CANLib\PortFiles/PortPSOC_swerve.c ****     CAN_Start(); //must name CAN Top Design block as "CAN"
  46              		.loc 1 44 0
  47 000a FFF7FEFF 		bl	CAN_Start
  48              	.LVL1:
  45:..\CANLib\PortFiles/PortPSOC_swerve.c ****     
  46:..\CANLib\PortFiles/PortPSOC_swerve.c ****     deviceGroup = deviceGroupInput & 0xF; //4bits of ID
  49              		.loc 1 46 0
  50 000e 0F20     		movs	r0, #15
  51 0010 2040     		ands	r0, r4
  52 0012 274E     		ldr	r6, .L2
  53 0014 3060     		str	r0, [r6]
  47:..\CANLib\PortFiles/PortPSOC_swerve.c ****     deviceAddressA = deviceAddress & (0x3F); //6bits of ID
  54              		.loc 1 47 0
  55 0016 3F22     		movs	r2, #63
  56 0018 1300     		movs	r3, r2
  57 001a 2B40     		ands	r3, r5
  58 001c 2549     		ldr	r1, .L2+4
  59 001e 0B60     		str	r3, [r1]
  48:..\CANLib\PortFiles/PortPSOC_swerve.c ****     deviceAddressB = (deviceAddress + 16) & (0x3F); //6bits of ID
  60              		.loc 1 48 0
  61 0020 1035     		adds	r5, r5, #16
  62              	.LVL2:
  63 0022 1540     		ands	r5, r2
  64              	.LVL3:
  65 0024 244F     		ldr	r7, .L2+8
  66 0026 3D60     		str	r5, [r7]
ARM GAS  C:\Users\casey\AppData\Local\Temp\cciudmPd.s 			page 3


  49:..\CANLib\PortFiles/PortPSOC_swerve.c ****     
  50:..\CANLib\PortFiles/PortPSOC_swerve.c ****     //MOTOR 1 (DEVICE A)
  51:..\CANLib\PortFiles/PortPSOC_swerve.c ****     //sets up inidvidual recieve mailbox (3rd priority mailbox)
  52:..\CANLib\PortFiles/PortPSOC_swerve.c ****     rxMailbox.rxmailbox = 0;
  67              		.loc 1 52 0
  68 0028 244C     		ldr	r4, .L2+12
  69              	.LVL4:
  70 002a 0025     		movs	r5, #0
  71 002c 2570     		strb	r5, [r4]
  53:..\CANLib\PortFiles/PortPSOC_swerve.c ****     rxMailbox.rxacr = ((deviceGroup << 6)|(deviceAddressA)) << 21;  // first 11 bits are the CAN ID
  72              		.loc 1 53 0
  73 002e 8001     		lsls	r0, r0, #6
  74 0030 1843     		orrs	r0, r3
  75 0032 4005     		lsls	r0, r0, #21
  76 0034 E060     		str	r0, [r4, #12]
  54:..\CANLib\PortFiles/PortPSOC_swerve.c ****     rxMailbox.rxamr = 0x801FFFFF; // what bits to ignore
  77              		.loc 1 54 0
  78 0036 224B     		ldr	r3, .L2+16
  79 0038 9846     		mov	r8, r3
  80 003a A360     		str	r3, [r4, #8]
  55:..\CANLib\PortFiles/PortPSOC_swerve.c ****     rxMailbox.rxcmd = CAN_RX_CMD_REG(CAN_RX_MAILBOX_0);//need to know what this is
  81              		.loc 1 55 0
  82 003c 214B     		ldr	r3, .L2+20
  83 003e 1B68     		ldr	r3, [r3]
  84 0040 6360     		str	r3, [r4, #4]
  56:..\CANLib\PortFiles/PortPSOC_swerve.c ****     CAN_RxBufConfig(&rxMailbox);
  85              		.loc 1 56 0
  86 0042 2000     		movs	r0, r4
  87 0044 FFF7FEFF 		bl	CAN_RxBufConfig
  88              	.LVL5:
  57:..\CANLib\PortFiles/PortPSOC_swerve.c ****     
  58:..\CANLib\PortFiles/PortPSOC_swerve.c ****     //MOTOR 2 (DEVICE B)
  59:..\CANLib\PortFiles/PortPSOC_swerve.c ****     rxMailbox.rxmailbox = 1;
  89              		.loc 1 59 0
  90 0048 0123     		movs	r3, #1
  91 004a 2370     		strb	r3, [r4]
  60:..\CANLib\PortFiles/PortPSOC_swerve.c ****     rxMailbox.rxacr = ((deviceGroup << 6)|(deviceAddressB)) << 21;  // first 11 bits are the CAN ID
  92              		.loc 1 60 0
  93 004c 3368     		ldr	r3, [r6]
  94 004e 9A01     		lsls	r2, r3, #6
  95 0050 3B68     		ldr	r3, [r7]
  96 0052 1343     		orrs	r3, r2
  97 0054 5B05     		lsls	r3, r3, #21
  98 0056 E360     		str	r3, [r4, #12]
  61:..\CANLib\PortFiles/PortPSOC_swerve.c ****     rxMailbox.rxamr = 0x801FFFFF; // what bits to ignore
  99              		.loc 1 61 0
 100 0058 4346     		mov	r3, r8
 101 005a A360     		str	r3, [r4, #8]
  62:..\CANLib\PortFiles/PortPSOC_swerve.c ****     rxMailbox.rxcmd = CAN_RX_CMD_REG(CAN_RX_MAILBOX_1);//need to know what this is
 102              		.loc 1 62 0
 103 005c 1A4B     		ldr	r3, .L2+24
 104 005e 1B68     		ldr	r3, [r3]
 105 0060 6360     		str	r3, [r4, #4]
  63:..\CANLib\PortFiles/PortPSOC_swerve.c ****     CAN_RxBufConfig(&rxMailbox);
 106              		.loc 1 63 0
 107 0062 2000     		movs	r0, r4
 108 0064 FFF7FEFF 		bl	CAN_RxBufConfig
ARM GAS  C:\Users\casey\AppData\Local\Temp\cciudmPd.s 			page 4


 109              	.LVL6:
  64:..\CANLib\PortFiles/PortPSOC_swerve.c ****     
  65:..\CANLib\PortFiles/PortPSOC_swerve.c ****     //setup broadcast recieve mailbox (1st priority mailbox)
  66:..\CANLib\PortFiles/PortPSOC_swerve.c ****     rxMailbox.rxmailbox = 2;
 110              		.loc 1 66 0
 111 0068 0223     		movs	r3, #2
 112 006a 2370     		strb	r3, [r4]
  67:..\CANLib\PortFiles/PortPSOC_swerve.c ****     rxMailbox.rxacr = ((0x0 << 6)|(0x0)) << 21; //0x20F<<21; // first 11 bits are the CAN ID that i
 113              		.loc 1 67 0
 114 006c E560     		str	r5, [r4, #12]
  68:..\CANLib\PortFiles/PortPSOC_swerve.c ****     rxMailbox.rxamr = 0x801FFFFF; // what bits to ignore
 115              		.loc 1 68 0
 116 006e 4346     		mov	r3, r8
 117 0070 A360     		str	r3, [r4, #8]
  69:..\CANLib\PortFiles/PortPSOC_swerve.c ****     rxMailbox.rxcmd = CAN_RX_CMD_REG(CAN_RX_MAILBOX_2);//need to know what this is
 118              		.loc 1 69 0
 119 0072 164B     		ldr	r3, .L2+28
 120 0074 1B68     		ldr	r3, [r3]
 121 0076 6360     		str	r3, [r4, #4]
  70:..\CANLib\PortFiles/PortPSOC_swerve.c ****     CAN_RxBufConfig(&rxMailbox);
 122              		.loc 1 70 0
 123 0078 2000     		movs	r0, r4
 124 007a FFF7FEFF 		bl	CAN_RxBufConfig
 125              	.LVL7:
  71:..\CANLib\PortFiles/PortPSOC_swerve.c ****     
  72:..\CANLib\PortFiles/PortPSOC_swerve.c ****     //setup group broadcast recieve mailbox (2nd priority mailbox)
  73:..\CANLib\PortFiles/PortPSOC_swerve.c ****     rxMailbox.rxmailbox = 3;
 126              		.loc 1 73 0
 127 007e 0323     		movs	r3, #3
 128 0080 2370     		strb	r3, [r4]
  74:..\CANLib\PortFiles/PortPSOC_swerve.c ****     rxMailbox.rxacr = ((deviceGroup << 6)|(0x3F)) << 21; //0x20F<<21; // first 11 bits are the CAN 
 129              		.loc 1 74 0
 130 0082 3368     		ldr	r3, [r6]
 131 0084 DB06     		lsls	r3, r3, #27
 132 0086 FC22     		movs	r2, #252
 133 0088 D204     		lsls	r2, r2, #19
 134 008a 1343     		orrs	r3, r2
 135 008c E360     		str	r3, [r4, #12]
  75:..\CANLib\PortFiles/PortPSOC_swerve.c ****     rxMailbox.rxamr = 0x801FFFFF; // what bits to ignore
 136              		.loc 1 75 0
 137 008e 4346     		mov	r3, r8
 138 0090 A360     		str	r3, [r4, #8]
  76:..\CANLib\PortFiles/PortPSOC_swerve.c ****     rxMailbox.rxcmd = CAN_RX_CMD_REG(CAN_RX_MAILBOX_3);//need to know what this is
 139              		.loc 1 76 0
 140 0092 0F4B     		ldr	r3, .L2+32
 141 0094 1B68     		ldr	r3, [r3]
 142 0096 6360     		str	r3, [r4, #4]
  77:..\CANLib\PortFiles/PortPSOC_swerve.c ****     CAN_RxBufConfig(&rxMailbox);
 143              		.loc 1 77 0
 144 0098 2000     		movs	r0, r4
 145 009a FFF7FEFF 		bl	CAN_RxBufConfig
 146              	.LVL8:
  78:..\CANLib\PortFiles/PortPSOC_swerve.c ****     
  79:..\CANLib\PortFiles/PortPSOC_swerve.c ****     CAN_GlobalIntEnable();
 147              		.loc 1 79 0
 148 009e FFF7FEFF 		bl	CAN_GlobalIntEnable
 149              	.LVL9:
ARM GAS  C:\Users\casey\AppData\Local\Temp\cciudmPd.s 			page 5


  80:..\CANLib\PortFiles/PortPSOC_swerve.c ****     CyIntSetVector(CAN_ISR_NUMBER, CAN_FLAG_ISR);
 150              		.loc 1 80 0
 151 00a2 0C49     		ldr	r1, .L2+36
 152 00a4 1C20     		movs	r0, #28
 153 00a6 FFF7FEFF 		bl	CyIntSetVector
 154              	.LVL10:
  81:..\CANLib\PortFiles/PortPSOC_swerve.c ****     //CY_ISR_PROTO(CAN_FLAG_ISR);
  82:..\CANLib\PortFiles/PortPSOC_swerve.c ****     
  83:..\CANLib\PortFiles/PortPSOC_swerve.c **** }
 155              		.loc 1 83 0
 156              		@ sp needed
 157 00aa 04BC     		pop	{r2}
 158 00ac 9046     		mov	r8, r2
 159 00ae F0BD     		pop	{r4, r5, r6, r7, pc}
 160              	.L3:
 161              		.align	2
 162              	.L2:
 163 00b0 00000000 		.word	deviceGroup
 164 00b4 00000000 		.word	deviceAddressA
 165 00b8 00000000 		.word	deviceAddressB
 166 00bc 00000000 		.word	rxMailbox
 167 00c0 FFFF1F80 		.word	-2145386497
 168 00c4 A0002E40 		.word	1076756640
 169 00c8 C0002E40 		.word	1076756672
 170 00cc E0002E40 		.word	1076756704
 171 00d0 00012E40 		.word	1076756736
 172 00d4 00000000 		.word	CAN_FLAG_ISR
 173              		.cfi_endproc
 174              	.LFE34:
 175              		.size	InitCAN, .-InitCAN
 176              		.section	.text.SendCANPacket,"ax",%progbits
 177              		.align	2
 178              		.global	SendCANPacket
 179              		.code	16
 180              		.thumb_func
 181              		.type	SendCANPacket, %function
 182              	SendCANPacket:
 183              	.LFB35:
  84:..\CANLib\PortFiles/PortPSOC_swerve.c **** int SendCANPacket(CANPacket *packetToSend)
  85:..\CANLib\PortFiles/PortPSOC_swerve.c **** {
 184              		.loc 1 85 0
 185              		.cfi_startproc
 186              		@ args = 0, pretend = 0, frame = 24
 187              		@ frame_needed = 0, uses_anonymous_args = 0
 188              	.LVL11:
 189 0000 10B5     		push	{r4, lr}
 190              		.cfi_def_cfa_offset 8
 191              		.cfi_offset 4, -8
 192              		.cfi_offset 14, -4
 193 0002 86B0     		sub	sp, sp, #24
 194              		.cfi_def_cfa_offset 32
  86:..\CANLib\PortFiles/PortPSOC_swerve.c ****     if(!packetToSend) {return ERROR_NULL_POINTER;}
 195              		.loc 1 86 0
 196 0004 0028     		cmp	r0, #0
 197 0006 15D0     		beq	.L6
  87:..\CANLib\PortFiles/PortPSOC_swerve.c ****     CAN_TX_MSG PSoCMessage;//CAN structure
  88:..\CANLib\PortFiles/PortPSOC_swerve.c ****     CAN_DATA_BYTES_MSG PSoCData;//CAN data
ARM GAS  C:\Users\casey\AppData\Local\Temp\cciudmPd.s 			page 6


  89:..\CANLib\PortFiles/PortPSOC_swerve.c ****     PSoCMessage.id = packetToSend->id;
 198              		.loc 1 89 0
 199 0008 0388     		ldrh	r3, [r0]
 200 000a 02AC     		add	r4, sp, #8
 201 000c 0293     		str	r3, [sp, #8]
  90:..\CANLib\PortFiles/PortPSOC_swerve.c ****     PSoCMessage.rtr = 0x0;
 202              		.loc 1 90 0
 203 000e 0023     		movs	r3, #0
 204 0010 2371     		strb	r3, [r4, #4]
  91:..\CANLib\PortFiles/PortPSOC_swerve.c ****     PSoCMessage.ide = 0x0;//Not extended
 205              		.loc 1 91 0
 206 0012 6371     		strb	r3, [r4, #5]
  92:..\CANLib\PortFiles/PortPSOC_swerve.c ****     PSoCMessage.dlc = packetToSend->dlc;
 207              		.loc 1 92 0
 208 0014 8278     		ldrb	r2, [r0, #2]
 209 0016 A271     		strb	r2, [r4, #6]
  93:..\CANLib\PortFiles/PortPSOC_swerve.c ****     PSoCMessage.irq = 0x0;
 210              		.loc 1 93 0
 211 0018 E371     		strb	r3, [r4, #7]
  94:..\CANLib\PortFiles/PortPSOC_swerve.c ****     PSoCMessage.msg = &PSoCData;
 212              		.loc 1 94 0
 213 001a 6B46     		mov	r3, sp
 214 001c 0593     		str	r3, [sp, #20]
  95:..\CANLib\PortFiles/PortPSOC_swerve.c ****     
  96:..\CANLib\PortFiles/PortPSOC_swerve.c ****     memcpy(PSoCData.byte, packetToSend->data, 8);
 215              		.loc 1 96 0
 216 001e C11C     		adds	r1, r0, #3
 217 0020 0822     		movs	r2, #8
 218 0022 6846     		mov	r0, sp
 219              	.LVL12:
 220 0024 FFF7FEFF 		bl	memcpy
 221              	.LVL13:
  97:..\CANLib\PortFiles/PortPSOC_swerve.c **** 
  98:..\CANLib\PortFiles/PortPSOC_swerve.c ****     if(CAN_SendMsg(&PSoCMessage) == CYRET_SUCCESS) {
 222              		.loc 1 98 0
 223 0028 2000     		movs	r0, r4
 224 002a FFF7FEFF 		bl	CAN_SendMsg
 225              	.LVL14:
 226 002e 0028     		cmp	r0, #0
 227 0030 02D1     		bne	.L7
 228 0032 02E0     		b	.L5
 229              	.LVL15:
 230              	.L6:
  86:..\CANLib\PortFiles/PortPSOC_swerve.c ****     CAN_TX_MSG PSoCMessage;//CAN structure
 231              		.loc 1 86 0
 232 0034 0220     		movs	r0, #2
 233              	.LVL16:
 234 0036 00E0     		b	.L5
 235              	.L7:
  99:..\CANLib\PortFiles/PortPSOC_swerve.c ****         return ERROR_NONE;
 100:..\CANLib\PortFiles/PortPSOC_swerve.c ****     } else
 101:..\CANLib\PortFiles/PortPSOC_swerve.c ****     {
 102:..\CANLib\PortFiles/PortPSOC_swerve.c ****         return ERROR_GENERIC_ERROR;
 236              		.loc 1 102 0
 237 0038 0120     		movs	r0, #1
 238              	.L5:
 103:..\CANLib\PortFiles/PortPSOC_swerve.c ****     }
ARM GAS  C:\Users\casey\AppData\Local\Temp\cciudmPd.s 			page 7


 104:..\CANLib\PortFiles/PortPSOC_swerve.c **** }
 239              		.loc 1 104 0
 240 003a 06B0     		add	sp, sp, #24
 241              		@ sp needed
 242 003c 10BD     		pop	{r4, pc}
 243              		.cfi_endproc
 244              	.LFE35:
 245              		.size	SendCANPacket, .-SendCANPacket
 246 003e C046     		.section	.text.getLocalDeviceSerial,"ax",%progbits
 247              		.align	2
 248              		.global	getLocalDeviceSerial
 249              		.code	16
 250              		.thumb_func
 251              		.type	getLocalDeviceSerial, %function
 252              	getLocalDeviceSerial:
 253              	.LFB37:
 105:..\CANLib\PortFiles/PortPSOC_swerve.c **** //
 106:..\CANLib\PortFiles/PortPSOC_swerve.c **** int PollAndReceiveCANPacket(CANPacket *receivedPacket)
 107:..\CANLib\PortFiles/PortPSOC_swerve.c **** {
 108:..\CANLib\PortFiles/PortPSOC_swerve.c ****     if(!receivedPacket) {
 109:..\CANLib\PortFiles/PortPSOC_swerve.c ****         return ERROR_NULL_POINTER;
 110:..\CANLib\PortFiles/PortPSOC_swerve.c ****     }
 111:..\CANLib\PortFiles/PortPSOC_swerve.c ****     volatile uint8_t size = FIFOSize();
 112:..\CANLib\PortFiles/PortPSOC_swerve.c ****     if(size)
 113:..\CANLib\PortFiles/PortPSOC_swerve.c ****     {
 114:..\CANLib\PortFiles/PortPSOC_swerve.c ****         *(receivedPacket) = latestMessage[latestMessageHead];
 115:..\CANLib\PortFiles/PortPSOC_swerve.c ****         countRemoveFIFO();
 116:..\CANLib\PortFiles/PortPSOC_swerve.c ****         return ERROR_NONE;
 117:..\CANLib\PortFiles/PortPSOC_swerve.c ****     }
 118:..\CANLib\PortFiles/PortPSOC_swerve.c ****     return 0x02; //No message received error
 119:..\CANLib\PortFiles/PortPSOC_swerve.c **** }
 120:..\CANLib\PortFiles/PortPSOC_swerve.c **** 
 121:..\CANLib\PortFiles/PortPSOC_swerve.c **** // This method is not working properly on swerve board because we have 2 motors, not one.
 122:..\CANLib\PortFiles/PortPSOC_swerve.c **** // The method WriteSenderSerialAndPacketID from CANPacket.c uses this function
 123:..\CANLib\PortFiles/PortPSOC_swerve.c **** // You should be fine if you don't use WriteSenderSerialAndPacketID
 124:..\CANLib\PortFiles/PortPSOC_swerve.c **** uint8_t getLocalDeviceSerial()
 125:..\CANLib\PortFiles/PortPSOC_swerve.c **** {
 254              		.loc 1 125 0
 255              		.cfi_startproc
 256              		@ args = 0, pretend = 0, frame = 0
 257              		@ frame_needed = 0, uses_anonymous_args = 0
 258              		@ link register save eliminated.
 126:..\CANLib\PortFiles/PortPSOC_swerve.c ****     return deviceAddressA;      //talk to abhay about this, only returns the first motor's address
 259              		.loc 1 126 0
 260 0000 014B     		ldr	r3, .L9
 261 0002 1878     		ldrb	r0, [r3]
 127:..\CANLib\PortFiles/PortPSOC_swerve.c **** }
 262              		.loc 1 127 0
 263              		@ sp needed
 264 0004 7047     		bx	lr
 265              	.L10:
 266 0006 C046     		.align	2
 267              	.L9:
 268 0008 00000000 		.word	deviceAddressA
 269              		.cfi_endproc
 270              	.LFE37:
 271              		.size	getLocalDeviceSerial, .-getLocalDeviceSerial
ARM GAS  C:\Users\casey\AppData\Local\Temp\cciudmPd.s 			page 8


 272              		.section	.text.getLocalDeviceGroup,"ax",%progbits
 273              		.align	2
 274              		.global	getLocalDeviceGroup
 275              		.code	16
 276              		.thumb_func
 277              		.type	getLocalDeviceGroup, %function
 278              	getLocalDeviceGroup:
 279              	.LFB38:
 128:..\CANLib\PortFiles/PortPSOC_swerve.c **** uint8_t getLocalDeviceGroup()
 129:..\CANLib\PortFiles/PortPSOC_swerve.c **** {
 280              		.loc 1 129 0
 281              		.cfi_startproc
 282              		@ args = 0, pretend = 0, frame = 0
 283              		@ frame_needed = 0, uses_anonymous_args = 0
 284              		@ link register save eliminated.
 130:..\CANLib\PortFiles/PortPSOC_swerve.c ****     return deviceGroup;
 285              		.loc 1 130 0
 286 0000 014B     		ldr	r3, .L12
 287 0002 1878     		ldrb	r0, [r3]
 131:..\CANLib\PortFiles/PortPSOC_swerve.c **** }
 288              		.loc 1 131 0
 289              		@ sp needed
 290 0004 7047     		bx	lr
 291              	.L13:
 292 0006 C046     		.align	2
 293              	.L12:
 294 0008 00000000 		.word	deviceGroup
 295              		.cfi_endproc
 296              	.LFE38:
 297              		.size	getLocalDeviceGroup, .-getLocalDeviceGroup
 298              		.section	.text.getChipType,"ax",%progbits
 299              		.align	2
 300              		.global	getChipType
 301              		.code	16
 302              		.thumb_func
 303              		.type	getChipType, %function
 304              	getChipType:
 305              	.LFB39:
 132:..\CANLib\PortFiles/PortPSOC_swerve.c **** 
 133:..\CANLib\PortFiles/PortPSOC_swerve.c **** uint8_t getChipType()
 134:..\CANLib\PortFiles/PortPSOC_swerve.c **** {
 306              		.loc 1 134 0
 307              		.cfi_startproc
 308              		@ args = 0, pretend = 0, frame = 0
 309              		@ frame_needed = 0, uses_anonymous_args = 0
 310              		@ link register save eliminated.
 135:..\CANLib\PortFiles/PortPSOC_swerve.c ****     return CHIP_TYPE; 
 136:..\CANLib\PortFiles/PortPSOC_swerve.c **** }
 311              		.loc 1 136 0
 312 0000 0220     		movs	r0, #2
 313              		@ sp needed
 314 0002 7047     		bx	lr
 315              		.cfi_endproc
 316              	.LFE39:
 317              		.size	getChipType, .-getChipType
 318              		.section	.text.FIFOSize,"ax",%progbits
 319              		.align	2
ARM GAS  C:\Users\casey\AppData\Local\Temp\cciudmPd.s 			page 9


 320              		.global	FIFOSize
 321              		.code	16
 322              		.thumb_func
 323              		.type	FIFOSize, %function
 324              	FIFOSize:
 325              	.LFB40:
 137:..\CANLib\PortFiles/PortPSOC_swerve.c **** 
 138:..\CANLib\PortFiles/PortPSOC_swerve.c **** //helper function calculate size of Fifo
 139:..\CANLib\PortFiles/PortPSOC_swerve.c **** uint8_t FIFOSize(){
 326              		.loc 1 139 0
 327              		.cfi_startproc
 328              		@ args = 0, pretend = 0, frame = 0
 329              		@ frame_needed = 0, uses_anonymous_args = 0
 330              		@ link register save eliminated.
 140:..\CANLib\PortFiles/PortPSOC_swerve.c ****     if(latestMessageFull) {
 331              		.loc 1 140 0
 332 0000 104B     		ldr	r3, .L19
 333 0002 1878     		ldrb	r0, [r3]
 334 0004 C0B2     		uxtb	r0, r0
 335 0006 0028     		cmp	r0, #0
 336 0008 19D1     		bne	.L18
 141:..\CANLib\PortFiles/PortPSOC_swerve.c ****         return FIFO_SIZE;
 142:..\CANLib\PortFiles/PortPSOC_swerve.c ****     }
 143:..\CANLib\PortFiles/PortPSOC_swerve.c ****     else if(latestMessageHead < latestMessageTail) {
 337              		.loc 1 143 0
 338 000a 5A78     		ldrb	r2, [r3, #1]
 339 000c D2B2     		uxtb	r2, r2
 340 000e 9B78     		ldrb	r3, [r3, #2]
 341 0010 DBB2     		uxtb	r3, r3
 342 0012 9A42     		cmp	r2, r3
 343 0014 05D2     		bcs	.L17
 144:..\CANLib\PortFiles/PortPSOC_swerve.c ****         return latestMessageTail - latestMessageHead;
 344              		.loc 1 144 0
 345 0016 0B4A     		ldr	r2, .L19
 346 0018 9378     		ldrb	r3, [r2, #2]
 347 001a 5078     		ldrb	r0, [r2, #1]
 348 001c 181A     		subs	r0, r3, r0
 349 001e C0B2     		uxtb	r0, r0
 350 0020 0EE0     		b	.L16
 351              	.L17:
 145:..\CANLib\PortFiles/PortPSOC_swerve.c ****     }
 146:..\CANLib\PortFiles/PortPSOC_swerve.c ****     else if(latestMessageHead > latestMessageTail) {
 352              		.loc 1 146 0
 353 0022 084B     		ldr	r3, .L19
 354 0024 5A78     		ldrb	r2, [r3, #1]
 355 0026 D2B2     		uxtb	r2, r2
 356 0028 9B78     		ldrb	r3, [r3, #2]
 357 002a DBB2     		uxtb	r3, r3
 358 002c 9A42     		cmp	r2, r3
 359 002e 07D9     		bls	.L16
 147:..\CANLib\PortFiles/PortPSOC_swerve.c ****         return (FIFO_SIZE - latestMessageHead) + latestMessageTail;
 360              		.loc 1 147 0
 361 0030 044A     		ldr	r2, .L19
 362 0032 9378     		ldrb	r3, [r2, #2]
 363 0034 5078     		ldrb	r0, [r2, #1]
 364 0036 181A     		subs	r0, r3, r0
 365 0038 1030     		adds	r0, r0, #16
ARM GAS  C:\Users\casey\AppData\Local\Temp\cciudmPd.s 			page 10


 366 003a C0B2     		uxtb	r0, r0
 367 003c 00E0     		b	.L16
 368              	.L18:
 141:..\CANLib\PortFiles/PortPSOC_swerve.c ****     }
 369              		.loc 1 141 0
 370 003e 1020     		movs	r0, #16
 371              	.L16:
 148:..\CANLib\PortFiles/PortPSOC_swerve.c ****     }
 149:..\CANLib\PortFiles/PortPSOC_swerve.c ****     else { // latestMessageHead == latestMessageTail && !latestMessageFull
 150:..\CANLib\PortFiles/PortPSOC_swerve.c ****         return 0;
 151:..\CANLib\PortFiles/PortPSOC_swerve.c ****     }
 152:..\CANLib\PortFiles/PortPSOC_swerve.c **** }
 372              		.loc 1 152 0
 373              		@ sp needed
 374 0040 7047     		bx	lr
 375              	.L20:
 376 0042 C046     		.align	2
 377              	.L19:
 378 0044 00000000 		.word	.LANCHOR0
 379              		.cfi_endproc
 380              	.LFE40:
 381              		.size	FIFOSize, .-FIFOSize
 382              		.section	.text.countAddFIFO,"ax",%progbits
 383              		.align	2
 384              		.global	countAddFIFO
 385              		.code	16
 386              		.thumb_func
 387              		.type	countAddFIFO, %function
 388              	countAddFIFO:
 389              	.LFB41:
 153:..\CANLib\PortFiles/PortPSOC_swerve.c **** 
 154:..\CANLib\PortFiles/PortPSOC_swerve.c **** void countAddFIFO(){ 
 390              		.loc 1 154 0
 391              		.cfi_startproc
 392              		@ args = 0, pretend = 0, frame = 0
 393              		@ frame_needed = 0, uses_anonymous_args = 0
 394              		@ link register save eliminated.
 155:..\CANLib\PortFiles/PortPSOC_swerve.c ****     latestMessageTail++;
 395              		.loc 1 155 0
 396 0000 124A     		ldr	r2, .L24
 397 0002 9378     		ldrb	r3, [r2, #2]
 398 0004 0133     		adds	r3, r3, #1
 399 0006 DBB2     		uxtb	r3, r3
 400 0008 9370     		strb	r3, [r2, #2]
 156:..\CANLib\PortFiles/PortPSOC_swerve.c ****     if(latestMessageTail >= FIFO_SIZE){
 401              		.loc 1 156 0
 402 000a 9378     		ldrb	r3, [r2, #2]
 403 000c DBB2     		uxtb	r3, r3
 404 000e 0F2B     		cmp	r3, #15
 405 0010 02D9     		bls	.L22
 157:..\CANLib\PortFiles/PortPSOC_swerve.c ****         latestMessageTail = 0;
 406              		.loc 1 157 0
 407 0012 0022     		movs	r2, #0
 408 0014 0D4B     		ldr	r3, .L24
 409 0016 9A70     		strb	r2, [r3, #2]
 410              	.L22:
 158:..\CANLib\PortFiles/PortPSOC_swerve.c ****     }
ARM GAS  C:\Users\casey\AppData\Local\Temp\cciudmPd.s 			page 11


 159:..\CANLib\PortFiles/PortPSOC_swerve.c ****     if(latestMessageFull) {
 411              		.loc 1 159 0
 412 0018 0C4B     		ldr	r3, .L24
 413 001a 1B78     		ldrb	r3, [r3]
 414 001c 002B     		cmp	r3, #0
 415 001e 0BD0     		beq	.L23
 160:..\CANLib\PortFiles/PortPSOC_swerve.c ****         latestMessageHead++;
 416              		.loc 1 160 0
 417 0020 0A4A     		ldr	r2, .L24
 418 0022 5378     		ldrb	r3, [r2, #1]
 419 0024 0133     		adds	r3, r3, #1
 420 0026 DBB2     		uxtb	r3, r3
 421 0028 5370     		strb	r3, [r2, #1]
 161:..\CANLib\PortFiles/PortPSOC_swerve.c ****         if(latestMessageHead >= FIFO_SIZE) {
 422              		.loc 1 161 0
 423 002a 5378     		ldrb	r3, [r2, #1]
 424 002c DBB2     		uxtb	r3, r3
 425 002e 0F2B     		cmp	r3, #15
 426 0030 02D9     		bls	.L23
 162:..\CANLib\PortFiles/PortPSOC_swerve.c ****             latestMessageHead = 0;
 427              		.loc 1 162 0
 428 0032 0022     		movs	r2, #0
 429 0034 054B     		ldr	r3, .L24
 430 0036 5A70     		strb	r2, [r3, #1]
 431              	.L23:
 163:..\CANLib\PortFiles/PortPSOC_swerve.c ****         }
 164:..\CANLib\PortFiles/PortPSOC_swerve.c ****     }
 165:..\CANLib\PortFiles/PortPSOC_swerve.c ****     latestMessageFull = (latestMessageHead == latestMessageTail);
 432              		.loc 1 165 0
 433 0038 044A     		ldr	r2, .L24
 434 003a 5378     		ldrb	r3, [r2, #1]
 435 003c 9178     		ldrb	r1, [r2, #2]
 436 003e 5B1A     		subs	r3, r3, r1
 437 0040 5942     		rsbs	r1, r3, #0
 438 0042 4B41     		adcs	r3, r3, r1
 439 0044 DBB2     		uxtb	r3, r3
 440 0046 1370     		strb	r3, [r2]
 166:..\CANLib\PortFiles/PortPSOC_swerve.c **** }
 441              		.loc 1 166 0
 442              		@ sp needed
 443 0048 7047     		bx	lr
 444              	.L25:
 445 004a C046     		.align	2
 446              	.L24:
 447 004c 00000000 		.word	.LANCHOR0
 448              		.cfi_endproc
 449              	.LFE41:
 450              		.size	countAddFIFO, .-countAddFIFO
 451              		.section	.text.CAN_FLAG_ISR,"ax",%progbits
 452              		.align	2
 453              		.global	CAN_FLAG_ISR
 454              		.code	16
 455              		.thumb_func
 456              		.type	CAN_FLAG_ISR, %function
 457              	CAN_FLAG_ISR:
 458              	.LFB43:
 167:..\CANLib\PortFiles/PortPSOC_swerve.c **** 
ARM GAS  C:\Users\casey\AppData\Local\Temp\cciudmPd.s 			page 12


 168:..\CANLib\PortFiles/PortPSOC_swerve.c **** void countRemoveFIFO(){
 169:..\CANLib\PortFiles/PortPSOC_swerve.c ****     if(FIFOSize() > 0) {
 170:..\CANLib\PortFiles/PortPSOC_swerve.c ****         latestMessageHead++;
 171:..\CANLib\PortFiles/PortPSOC_swerve.c ****         if(latestMessageHead >= FIFO_SIZE) {
 172:..\CANLib\PortFiles/PortPSOC_swerve.c ****             latestMessageHead = 0;
 173:..\CANLib\PortFiles/PortPSOC_swerve.c ****         }
 174:..\CANLib\PortFiles/PortPSOC_swerve.c ****     }
 175:..\CANLib\PortFiles/PortPSOC_swerve.c **** }
 176:..\CANLib\PortFiles/PortPSOC_swerve.c **** 
 177:..\CANLib\PortFiles/PortPSOC_swerve.c **** 
 178:..\CANLib\PortFiles/PortPSOC_swerve.c **** 
 179:..\CANLib\PortFiles/PortPSOC_swerve.c **** CY_ISR(CAN_FLAG_ISR)
 180:..\CANLib\PortFiles/PortPSOC_swerve.c **** {
 459              		.loc 1 180 0
 460              		.cfi_startproc
 461              		@ args = 0, pretend = 0, frame = 0
 462              		@ frame_needed = 0, uses_anonymous_args = 0
 463 0000 70B5     		push	{r4, r5, r6, lr}
 464              		.cfi_def_cfa_offset 16
 465              		.cfi_offset 4, -16
 466              		.cfi_offset 5, -12
 467              		.cfi_offset 6, -8
 468              		.cfi_offset 14, -4
 181:..\CANLib\PortFiles/PortPSOC_swerve.c **** 
 182:..\CANLib\PortFiles/PortPSOC_swerve.c ****     //*(reg32*)0x402F0000 = CAN_RX_MESSAGE_MASK & CAN_SST_FAILURE_MASK & CAN_CRC_ERROR_MASK; //Clea
 183:..\CANLib\PortFiles/PortPSOC_swerve.c ****     CAN_INT_SR_REG = CAN_RX_MESSAGE_MASK;
 469              		.loc 1 183 0
 470 0002 8022     		movs	r2, #128
 471 0004 5201     		lsls	r2, r2, #5
 472 0006 434B     		ldr	r3, .L34
 473 0008 1A60     		str	r2, [r3]
 184:..\CANLib\PortFiles/PortPSOC_swerve.c ****     uint32_t statusReg = (uint32_t) CAN_BUF_SR_REG; //Hardcoded for speed, translation from reg
 474              		.loc 1 184 0
 475 000a 434B     		ldr	r3, .L34+4
 476 000c 1B68     		ldr	r3, [r3]
 477              	.LVL17:
 185:..\CANLib\PortFiles/PortPSOC_swerve.c ****     uint8_t mailbox;
 186:..\CANLib\PortFiles/PortPSOC_swerve.c ****     
 187:..\CANLib\PortFiles/PortPSOC_swerve.c ****     if(statusReg & 0b1) { // mailbox0 is full (individual)
 478              		.loc 1 187 0
 479 000e DA07     		lsls	r2, r3, #31
 480 0010 07D4     		bmi	.L31
 188:..\CANLib\PortFiles/PortPSOC_swerve.c ****         mailbox = CAN_RX_MAILBOX_0;
 189:..\CANLib\PortFiles/PortPSOC_swerve.c ****     }
 190:..\CANLib\PortFiles/PortPSOC_swerve.c ****     else if(statusReg & 0b10) { // mailbox1 is full (broadcast)
 481              		.loc 1 190 0
 482 0012 9A07     		lsls	r2, r3, #30
 483 0014 07D4     		bmi	.L32
 191:..\CANLib\PortFiles/PortPSOC_swerve.c ****         mailbox = CAN_RX_MAILBOX_1;
 192:..\CANLib\PortFiles/PortPSOC_swerve.c ****     }    
 193:..\CANLib\PortFiles/PortPSOC_swerve.c ****     else if(statusReg & 0b100) { // mailbox2 is full (group broadcast)
 484              		.loc 1 193 0
 485 0016 5A07     		lsls	r2, r3, #29
 486 0018 07D4     		bmi	.L33
 194:..\CANLib\PortFiles/PortPSOC_swerve.c ****         mailbox = CAN_RX_MAILBOX_2;
 195:..\CANLib\PortFiles/PortPSOC_swerve.c ****     } 
 196:..\CANLib\PortFiles/PortPSOC_swerve.c ****     else if(statusReg & 0b1000) { // mailbox3 is full currently recieves anything enable in top des
ARM GAS  C:\Users\casey\AppData\Local\Temp\cciudmPd.s 			page 13


 487              		.loc 1 196 0
 488 001a 1B07     		lsls	r3, r3, #28
 489 001c 79D5     		bpl	.L26
 490              	.LVL18:
 197:..\CANLib\PortFiles/PortPSOC_swerve.c ****         mailbox = CAN_RX_MAILBOX_3;
 491              		.loc 1 197 0
 492 001e 0324     		movs	r4, #3
 493 0020 04E0     		b	.L27
 494              	.LVL19:
 495              	.L31:
 188:..\CANLib\PortFiles/PortPSOC_swerve.c ****     }
 496              		.loc 1 188 0
 497 0022 0024     		movs	r4, #0
 498 0024 02E0     		b	.L27
 499              	.L32:
 191:..\CANLib\PortFiles/PortPSOC_swerve.c ****     }    
 500              		.loc 1 191 0
 501 0026 0124     		movs	r4, #1
 502 0028 00E0     		b	.L27
 503              	.L33:
 194:..\CANLib\PortFiles/PortPSOC_swerve.c ****     } 
 504              		.loc 1 194 0
 505 002a 0224     		movs	r4, #2
 506              	.LVL20:
 507              	.L27:
 198:..\CANLib\PortFiles/PortPSOC_swerve.c ****     } else return; // added this to remove warning
 199:..\CANLib\PortFiles/PortPSOC_swerve.c ****     
 200:..\CANLib\PortFiles/PortPSOC_swerve.c ****     latestMessage[latestMessageTail].id = CAN_GET_RX_ID(mailbox);
 508              		.loc 1 200 0
 509 002c 3B4B     		ldr	r3, .L34+8
 510 002e 9A78     		ldrb	r2, [r3, #2]
 511 0030 D2B2     		uxtb	r2, r2
 512 0032 6401     		lsls	r4, r4, #5
 513              	.LVL21:
 514 0034 3A4B     		ldr	r3, .L34+12
 515 0036 9C46     		mov	ip, r3
 516 0038 6444     		add	r4, r4, ip
 517 003a 2368     		ldr	r3, [r4]
 518 003c DB02     		lsls	r3, r3, #11
 519 003e 02D4     		bmi	.L29
 520              		.loc 1 200 0 is_stmt 0 discriminator 1
 521 0040 6168     		ldr	r1, [r4, #4]
 522 0042 490D     		lsrs	r1, r1, #21
 523 0044 02E0     		b	.L30
 524              	.L29:
 525              		.loc 1 200 0 discriminator 2
 526 0046 6168     		ldr	r1, [r4, #4]
 527 0048 C908     		lsrs	r1, r1, #3
 528 004a 89B2     		uxth	r1, r1
 529              	.L30:
 530              		.loc 1 200 0 discriminator 4
 531 004c 354B     		ldr	r3, .L34+16
 532 004e 5000     		lsls	r0, r2, #1
 533 0050 8218     		adds	r2, r0, r2
 534 0052 9000     		lsls	r0, r2, #2
 535 0054 C152     		strh	r1, [r0, r3]
 201:..\CANLib\PortFiles/PortPSOC_swerve.c ****     latestMessage[latestMessageTail].dlc = CAN_GET_DLC(mailbox);
ARM GAS  C:\Users\casey\AppData\Local\Temp\cciudmPd.s 			page 14


 536              		.loc 1 201 0 is_stmt 1 discriminator 4
 537 0056 314A     		ldr	r2, .L34+8
 538 0058 9178     		ldrb	r1, [r2, #2]
 539 005a C9B2     		uxtb	r1, r1
 540 005c 2068     		ldr	r0, [r4]
 541 005e 000C     		lsrs	r0, r0, #16
 542 0060 0F25     		movs	r5, #15
 543 0062 2840     		ands	r0, r5
 544 0064 4D00     		lsls	r5, r1, #1
 545 0066 6918     		adds	r1, r5, r1
 546 0068 8D00     		lsls	r5, r1, #2
 547 006a 5D19     		adds	r5, r3, r5
 548 006c A870     		strb	r0, [r5, #2]
 202:..\CANLib\PortFiles/PortPSOC_swerve.c ****     latestMessage[latestMessageTail].data[0] = CAN_RX_DATA_BYTE1(mailbox);
 549              		.loc 1 202 0 discriminator 4
 550 006e 9178     		ldrb	r1, [r2, #2]
 551 0070 C9B2     		uxtb	r1, r1
 552 0072 A568     		ldr	r5, [r4, #8]
 553 0074 2D0E     		lsrs	r5, r5, #24
 554 0076 4800     		lsls	r0, r1, #1
 555 0078 4118     		adds	r1, r0, r1
 556 007a 8800     		lsls	r0, r1, #2
 557 007c 1818     		adds	r0, r3, r0
 558 007e C570     		strb	r5, [r0, #3]
 203:..\CANLib\PortFiles/PortPSOC_swerve.c ****     latestMessage[latestMessageTail].data[1] = CAN_RX_DATA_BYTE2(mailbox);
 559              		.loc 1 203 0 discriminator 4
 560 0080 9178     		ldrb	r1, [r2, #2]
 561 0082 C9B2     		uxtb	r1, r1
 562 0084 A068     		ldr	r0, [r4, #8]
 563 0086 000C     		lsrs	r0, r0, #16
 564 0088 C0B2     		uxtb	r0, r0
 565 008a 4D00     		lsls	r5, r1, #1
 566 008c 6918     		adds	r1, r5, r1
 567 008e 8D00     		lsls	r5, r1, #2
 568 0090 5D19     		adds	r5, r3, r5
 569 0092 2871     		strb	r0, [r5, #4]
 204:..\CANLib\PortFiles/PortPSOC_swerve.c ****     latestMessage[latestMessageTail].data[2] = CAN_RX_DATA_BYTE3(mailbox);
 570              		.loc 1 204 0 discriminator 4
 571 0094 9178     		ldrb	r1, [r2, #2]
 572 0096 C9B2     		uxtb	r1, r1
 573 0098 A068     		ldr	r0, [r4, #8]
 574 009a 000A     		lsrs	r0, r0, #8
 575 009c C0B2     		uxtb	r0, r0
 576 009e 4D00     		lsls	r5, r1, #1
 577 00a0 6918     		adds	r1, r5, r1
 578 00a2 8D00     		lsls	r5, r1, #2
 579 00a4 5D19     		adds	r5, r3, r5
 580 00a6 6871     		strb	r0, [r5, #5]
 205:..\CANLib\PortFiles/PortPSOC_swerve.c ****     latestMessage[latestMessageTail].data[3] = CAN_RX_DATA_BYTE4(mailbox);
 581              		.loc 1 205 0 discriminator 4
 582 00a8 9178     		ldrb	r1, [r2, #2]
 583 00aa C9B2     		uxtb	r1, r1
 584 00ac A568     		ldr	r5, [r4, #8]
 585 00ae EDB2     		uxtb	r5, r5
 586 00b0 4800     		lsls	r0, r1, #1
 587 00b2 4118     		adds	r1, r0, r1
 588 00b4 8800     		lsls	r0, r1, #2
ARM GAS  C:\Users\casey\AppData\Local\Temp\cciudmPd.s 			page 15


 589 00b6 1818     		adds	r0, r3, r0
 590 00b8 8571     		strb	r5, [r0, #6]
 206:..\CANLib\PortFiles/PortPSOC_swerve.c ****     latestMessage[latestMessageTail].data[4] = CAN_RX_DATA_BYTE5(mailbox);
 591              		.loc 1 206 0 discriminator 4
 592 00ba 9178     		ldrb	r1, [r2, #2]
 593 00bc C9B2     		uxtb	r1, r1
 594 00be E568     		ldr	r5, [r4, #12]
 595 00c0 2D0E     		lsrs	r5, r5, #24
 596 00c2 4800     		lsls	r0, r1, #1
 597 00c4 4118     		adds	r1, r0, r1
 598 00c6 8800     		lsls	r0, r1, #2
 599 00c8 1818     		adds	r0, r3, r0
 600 00ca C571     		strb	r5, [r0, #7]
 207:..\CANLib\PortFiles/PortPSOC_swerve.c ****     latestMessage[latestMessageTail].data[5] = CAN_RX_DATA_BYTE6(mailbox);
 601              		.loc 1 207 0 discriminator 4
 602 00cc 9178     		ldrb	r1, [r2, #2]
 603 00ce C9B2     		uxtb	r1, r1
 604 00d0 E068     		ldr	r0, [r4, #12]
 605 00d2 000C     		lsrs	r0, r0, #16
 606 00d4 C0B2     		uxtb	r0, r0
 607 00d6 4D00     		lsls	r5, r1, #1
 608 00d8 6918     		adds	r1, r5, r1
 609 00da 8D00     		lsls	r5, r1, #2
 610 00dc 5D19     		adds	r5, r3, r5
 611 00de 2872     		strb	r0, [r5, #8]
 208:..\CANLib\PortFiles/PortPSOC_swerve.c ****     latestMessage[latestMessageTail].data[6] = CAN_RX_DATA_BYTE7(mailbox);
 612              		.loc 1 208 0 discriminator 4
 613 00e0 9178     		ldrb	r1, [r2, #2]
 614 00e2 C9B2     		uxtb	r1, r1
 615 00e4 E068     		ldr	r0, [r4, #12]
 616 00e6 000A     		lsrs	r0, r0, #8
 617 00e8 C0B2     		uxtb	r0, r0
 618 00ea 4D00     		lsls	r5, r1, #1
 619 00ec 6918     		adds	r1, r5, r1
 620 00ee 8D00     		lsls	r5, r1, #2
 621 00f0 5D19     		adds	r5, r3, r5
 622 00f2 6872     		strb	r0, [r5, #9]
 209:..\CANLib\PortFiles/PortPSOC_swerve.c ****     latestMessage[latestMessageTail].data[7] = CAN_RX_DATA_BYTE8(mailbox);
 623              		.loc 1 209 0 discriminator 4
 624 00f4 9278     		ldrb	r2, [r2, #2]
 625 00f6 D2B2     		uxtb	r2, r2
 626 00f8 E068     		ldr	r0, [r4, #12]
 627 00fa C0B2     		uxtb	r0, r0
 628 00fc 5100     		lsls	r1, r2, #1
 629 00fe 8A18     		adds	r2, r1, r2
 630 0100 9100     		lsls	r1, r2, #2
 631 0102 5B18     		adds	r3, r3, r1
 632 0104 9872     		strb	r0, [r3, #10]
 210:..\CANLib\PortFiles/PortPSOC_swerve.c ****     countAddFIFO();
 633              		.loc 1 210 0 discriminator 4
 634 0106 FFF7FEFF 		bl	countAddFIFO
 635              	.LVL22:
 211:..\CANLib\PortFiles/PortPSOC_swerve.c **** 
 212:..\CANLib\PortFiles/PortPSOC_swerve.c ****     //CAN_ReceiveMsg(messagePresentFlag);
 213:..\CANLib\PortFiles/PortPSOC_swerve.c ****     CAN_RX_ACK_MESSAGE(mailbox);
 636              		.loc 1 213 0 discriminator 4
 637 010a 2268     		ldr	r2, [r4]
ARM GAS  C:\Users\casey\AppData\Local\Temp\cciudmPd.s 			page 16


 638 010c 0123     		movs	r3, #1
 639 010e 1343     		orrs	r3, r2
 640 0110 2360     		str	r3, [r4]
 641              	.L26:
 214:..\CANLib\PortFiles/PortPSOC_swerve.c **** }
 642              		.loc 1 214 0
 643              		@ sp needed
 644 0112 70BD     		pop	{r4, r5, r6, pc}
 645              	.L35:
 646              		.align	2
 647              	.L34:
 648 0114 00002E40 		.word	1076756480
 649 0118 08002E40 		.word	1076756488
 650 011c 00000000 		.word	.LANCHOR0
 651 0120 A0002E40 		.word	1076756640
 652 0124 00000000 		.word	latestMessage
 653              		.cfi_endproc
 654              	.LFE43:
 655              		.size	CAN_FLAG_ISR, .-CAN_FLAG_ISR
 656              		.section	.text.countRemoveFIFO,"ax",%progbits
 657              		.align	2
 658              		.global	countRemoveFIFO
 659              		.code	16
 660              		.thumb_func
 661              		.type	countRemoveFIFO, %function
 662              	countRemoveFIFO:
 663              	.LFB42:
 168:..\CANLib\PortFiles/PortPSOC_swerve.c ****     if(FIFOSize() > 0) {
 664              		.loc 1 168 0
 665              		.cfi_startproc
 666              		@ args = 0, pretend = 0, frame = 0
 667              		@ frame_needed = 0, uses_anonymous_args = 0
 668 0000 10B5     		push	{r4, lr}
 669              		.cfi_def_cfa_offset 8
 670              		.cfi_offset 4, -8
 671              		.cfi_offset 14, -4
 169:..\CANLib\PortFiles/PortPSOC_swerve.c ****         latestMessageHead++;
 672              		.loc 1 169 0
 673 0002 FFF7FEFF 		bl	FIFOSize
 674              	.LVL23:
 675 0006 0028     		cmp	r0, #0
 676 0008 0BD0     		beq	.L36
 170:..\CANLib\PortFiles/PortPSOC_swerve.c ****         if(latestMessageHead >= FIFO_SIZE) {
 677              		.loc 1 170 0
 678 000a 064A     		ldr	r2, .L38
 679 000c 5378     		ldrb	r3, [r2, #1]
 680 000e 0133     		adds	r3, r3, #1
 681 0010 DBB2     		uxtb	r3, r3
 682 0012 5370     		strb	r3, [r2, #1]
 171:..\CANLib\PortFiles/PortPSOC_swerve.c ****             latestMessageHead = 0;
 683              		.loc 1 171 0
 684 0014 5378     		ldrb	r3, [r2, #1]
 685 0016 DBB2     		uxtb	r3, r3
 686 0018 0F2B     		cmp	r3, #15
 687 001a 02D9     		bls	.L36
 172:..\CANLib\PortFiles/PortPSOC_swerve.c ****         }
 688              		.loc 1 172 0
ARM GAS  C:\Users\casey\AppData\Local\Temp\cciudmPd.s 			page 17


 689 001c 0022     		movs	r2, #0
 690 001e 014B     		ldr	r3, .L38
 691 0020 5A70     		strb	r2, [r3, #1]
 692              	.L36:
 175:..\CANLib\PortFiles/PortPSOC_swerve.c **** 
 693              		.loc 1 175 0
 694              		@ sp needed
 695 0022 10BD     		pop	{r4, pc}
 696              	.L39:
 697              		.align	2
 698              	.L38:
 699 0024 00000000 		.word	.LANCHOR0
 700              		.cfi_endproc
 701              	.LFE42:
 702              		.size	countRemoveFIFO, .-countRemoveFIFO
 703              		.section	.text.PollAndReceiveCANPacket,"ax",%progbits
 704              		.align	2
 705              		.global	PollAndReceiveCANPacket
 706              		.code	16
 707              		.thumb_func
 708              		.type	PollAndReceiveCANPacket, %function
 709              	PollAndReceiveCANPacket:
 710              	.LFB36:
 107:..\CANLib\PortFiles/PortPSOC_swerve.c ****     if(!receivedPacket) {
 711              		.loc 1 107 0
 712              		.cfi_startproc
 713              		@ args = 0, pretend = 0, frame = 8
 714              		@ frame_needed = 0, uses_anonymous_args = 0
 715              	.LVL24:
 716 0000 10B5     		push	{r4, lr}
 717              		.cfi_def_cfa_offset 8
 718              		.cfi_offset 4, -8
 719              		.cfi_offset 14, -4
 720 0002 82B0     		sub	sp, sp, #8
 721              		.cfi_def_cfa_offset 16
 722 0004 041E     		subs	r4, r0, #0
 108:..\CANLib\PortFiles/PortPSOC_swerve.c ****         return ERROR_NULL_POINTER;
 723              		.loc 1 108 0
 724 0006 17D0     		beq	.L42
 111:..\CANLib\PortFiles/PortPSOC_swerve.c ****     if(size)
 725              		.loc 1 111 0
 726 0008 FFF7FEFF 		bl	FIFOSize
 727              	.LVL25:
 728 000c 6B46     		mov	r3, sp
 729 000e D871     		strb	r0, [r3, #7]
 730 0010 0733     		adds	r3, r3, #7
 112:..\CANLib\PortFiles/PortPSOC_swerve.c ****     {
 731              		.loc 1 112 0
 732 0012 1B78     		ldrb	r3, [r3]
 733 0014 002B     		cmp	r3, #0
 734 0016 11D0     		beq	.L43
 114:..\CANLib\PortFiles/PortPSOC_swerve.c ****         countRemoveFIFO();
 735              		.loc 1 114 0
 736 0018 0A4B     		ldr	r3, .L44
 737 001a 5B78     		ldrb	r3, [r3, #1]
 738 001c DBB2     		uxtb	r3, r3
 739 001e 5A00     		lsls	r2, r3, #1
ARM GAS  C:\Users\casey\AppData\Local\Temp\cciudmPd.s 			page 18


 740 0020 D318     		adds	r3, r2, r3
 741 0022 9900     		lsls	r1, r3, #2
 742 0024 084B     		ldr	r3, .L44+4
 743 0026 5918     		adds	r1, r3, r1
 744 0028 0C22     		movs	r2, #12
 745 002a 2000     		movs	r0, r4
 746 002c FFF7FEFF 		bl	memcpy
 747              	.LVL26:
 115:..\CANLib\PortFiles/PortPSOC_swerve.c ****         return ERROR_NONE;
 748              		.loc 1 115 0
 749 0030 FFF7FEFF 		bl	countRemoveFIFO
 750              	.LVL27:
 116:..\CANLib\PortFiles/PortPSOC_swerve.c ****     }
 751              		.loc 1 116 0
 752 0034 0020     		movs	r0, #0
 753 0036 02E0     		b	.L41
 754              	.LVL28:
 755              	.L42:
 109:..\CANLib\PortFiles/PortPSOC_swerve.c ****     }
 756              		.loc 1 109 0
 757 0038 0220     		movs	r0, #2
 758              	.LVL29:
 759 003a 00E0     		b	.L41
 760              	.L43:
 118:..\CANLib\PortFiles/PortPSOC_swerve.c **** }
 761              		.loc 1 118 0
 762 003c 0220     		movs	r0, #2
 763              	.L41:
 119:..\CANLib\PortFiles/PortPSOC_swerve.c **** 
 764              		.loc 1 119 0
 765 003e 02B0     		add	sp, sp, #8
 766              		@ sp needed
 767              	.LVL30:
 768 0040 10BD     		pop	{r4, pc}
 769              	.L45:
 770 0042 C046     		.align	2
 771              	.L44:
 772 0044 00000000 		.word	.LANCHOR0
 773 0048 00000000 		.word	latestMessage
 774              		.cfi_endproc
 775              	.LFE36:
 776              		.size	PollAndReceiveCANPacket, .-PollAndReceiveCANPacket
 777              		.comm	rxMailbox,16,4
 778              		.comm	deviceGroup,4,4
 779              		.comm	deviceAddressB,4,4
 780              		.comm	deviceAddressA,4,4
 781              		.global	latestMessageFull
 782              		.global	latestMessageTail
 783              		.global	latestMessageHead
 784              		.comm	latestMessage,192,4
 785              		.global	messageReadFlag
 786              		.global	messagePresentFlag
 787              		.data
 788              		.type	messagePresentFlag, %object
 789              		.size	messagePresentFlag, 1
 790              	messagePresentFlag:
 791 0000 FF       		.byte	-1
ARM GAS  C:\Users\casey\AppData\Local\Temp\cciudmPd.s 			page 19


 792              		.bss
 793              		.set	.LANCHOR0,. + 0
 794              		.type	latestMessageFull, %object
 795              		.size	latestMessageFull, 1
 796              	latestMessageFull:
 797 0000 00       		.space	1
 798              		.type	latestMessageHead, %object
 799              		.size	latestMessageHead, 1
 800              	latestMessageHead:
 801 0001 00       		.space	1
 802              		.type	latestMessageTail, %object
 803              		.size	latestMessageTail, 1
 804              	latestMessageTail:
 805 0002 00       		.space	1
 806              		.type	messageReadFlag, %object
 807              		.size	messageReadFlag, 1
 808              	messageReadFlag:
 809 0003 00       		.space	1
 810              		.text
 811              	.Letext0:
 812              		.file 2 "c:\\program files (x86)\\cypress\\psoc creator\\4.4\\psoc creator\\import\\gnu\\arm\\5.4.
 813              		.file 3 "c:\\program files (x86)\\cypress\\psoc creator\\4.4\\psoc creator\\import\\gnu\\arm\\5.4.
 814              		.file 4 "..\\CANLib\\PortFiles\\../CANPacket.h"
 815              		.file 5 "Generated_Source\\PSoC4/cytypes.h"
 816              		.file 6 "Generated_Source\\PSoC4/CAN.h"
 817              		.file 7 "Generated_Source\\PSoC4/CyLib.h"