ARM GAS  C:\Users\davis\AppData\Local\Temp\cc4oM3Qv.s 			page 1


   1              		.syntax unified
   2              		.cpu cortex-m0
   3              		.fpu softvfp
   4              		.eabi_attribute 20, 1
   5              		.eabi_attribute 21, 1
   6              		.eabi_attribute 23, 3
   7              		.eabi_attribute 24, 1
   8              		.eabi_attribute 25, 1
   9              		.eabi_attribute 26, 1
  10              		.eabi_attribute 30, 1
  11              		.eabi_attribute 34, 0
  12              		.eabi_attribute 18, 4
  13              		.thumb
  14              		.syntax unified
  15              		.file	"PositionPID.c"
  16              		.text
  17              	.Ltext0:
  18              		.cfi_sections	.debug_frame
  19              		.section	.text.ClearPIDProgress,"ax",%progbits
  20              		.align	2
  21              		.global	ClearPIDProgress
  22              		.code	16
  23              		.thumb_func
  24              		.type	ClearPIDProgress, %function
  25              	ClearPIDProgress:
  26              	.LFB35:
  27              		.file 1 "PositionPID.c"
   1:PositionPID.c **** /* ========================================
   2:PositionPID.c ****  *
   3:PositionPID.c ****  * Copyright YOUR COMPANY, THE YEAR
   4:PositionPID.c ****  * All Rights Reserved
   5:PositionPID.c ****  * UNPUBLISHED, LICENSED SOFTWARE.
   6:PositionPID.c ****  *
   7:PositionPID.c ****  * CONFIDENTIAL AND PROPRIETARY INFORMATION
   8:PositionPID.c ****  * WHICH IS THE PROPERTY OF your company.
   9:PositionPID.c ****  *
  10:PositionPID.c ****  * ========================================
  11:PositionPID.c **** */
  12:PositionPID.c **** 
  13:PositionPID.c **** //PID varaibles
  14:PositionPID.c **** #include <project.h>
  15:PositionPID.c **** #include "PositionPID.h"
  16:PositionPID.c **** #include "MotorDrive.h"
  17:PositionPID.c **** #include "main.h"
  18:PositionPID.c **** 
  19:PositionPID.c **** int32_t PWM = 0;
  20:PositionPID.c **** int32_t kPosition = 0, kIntegral = 0, kDerivative = 0;
  21:PositionPID.c **** int32_t tickMax = 0, tickMin = 0, mDegMax = 0, mDegMin = 0;
  22:PositionPID.c **** double mDegPerTick;
  23:PositionPID.c **** 
  24:PositionPID.c **** int integral = 0;     //needs to be reset upon mode change
  25:PositionPID.c **** int lastError = 0; //needs to be reset upon mode change
  26:PositionPID.c **** int integralClamp = 500;
  27:PositionPID.c **** int32 maxPWM = 32767;
  28:PositionPID.c **** 
  29:PositionPID.c **** // double ratio;
  30:PositionPID.c **** // uint8 complete = 0;
ARM GAS  C:\Users\davis\AppData\Local\Temp\cc4oM3Qv.s 			page 2


  31:PositionPID.c **** 
  32:PositionPID.c **** uint8_t usingPot = 0;
  33:PositionPID.c **** uint8_t enabledPID = 0;
  34:PositionPID.c **** 
  35:PositionPID.c **** //encoder counter
  36:PositionPID.c **** extern int32_t counter;
  37:PositionPID.c **** extern uint8_t ignoreLimSw_M2;
  38:PositionPID.c **** 
  39:PositionPID.c **** extern char txData[TX_DATA_SIZE];
  40:PositionPID.c **** 
  41:PositionPID.c **** void ClearPIDProgress() {
  28              		.loc 1 41 0
  29              		.cfi_startproc
  30              		@ args = 0, pretend = 0, frame = 0
  31              		@ frame_needed = 0, uses_anonymous_args = 0
  32              		@ link register save eliminated.
  42:PositionPID.c ****     integral = 0;
  33              		.loc 1 42 0
  34 0000 024B     		ldr	r3, .L2
  35 0002 0022     		movs	r2, #0
  36 0004 1A60     		str	r2, [r3]
  43:PositionPID.c ****     lastError = 0;
  37              		.loc 1 43 0
  38 0006 5A60     		str	r2, [r3, #4]
  44:PositionPID.c **** }
  39              		.loc 1 44 0
  40              		@ sp needed
  41 0008 7047     		bx	lr
  42              	.L3:
  43 000a C046     		.align	2
  44              	.L2:
  45 000c 00000000 		.word	.LANCHOR0
  46              		.cfi_endproc
  47              	.LFE35:
  48              		.size	ClearPIDProgress, .-ClearPIDProgress
  49              		.section	.text.DisablePID,"ax",%progbits
  50              		.align	2
  51              		.global	DisablePID
  52              		.code	16
  53              		.thumb_func
  54              		.type	DisablePID, %function
  55              	DisablePID:
  56              	.LFB36:
  45:PositionPID.c **** void DisablePID() {
  57              		.loc 1 45 0
  58              		.cfi_startproc
  59              		@ args = 0, pretend = 0, frame = 0
  60              		@ frame_needed = 0, uses_anonymous_args = 0
  61              		@ link register save eliminated.
  46:PositionPID.c ****     enabledPID = 0;
  62              		.loc 1 46 0
  63 0000 0022     		movs	r2, #0
  64 0002 014B     		ldr	r3, .L5
  65 0004 1A72     		strb	r2, [r3, #8]
  47:PositionPID.c **** }
  66              		.loc 1 47 0
  67              		@ sp needed
ARM GAS  C:\Users\davis\AppData\Local\Temp\cc4oM3Qv.s 			page 3


  68 0006 7047     		bx	lr
  69              	.L6:
  70              		.align	2
  71              	.L5:
  72 0008 00000000 		.word	.LANCHOR0
  73              		.cfi_endproc
  74              	.LFE36:
  75              		.size	DisablePID, .-DisablePID
  76              		.section	.text.EnablePID,"ax",%progbits
  77              		.align	2
  78              		.global	EnablePID
  79              		.code	16
  80              		.thumb_func
  81              		.type	EnablePID, %function
  82              	EnablePID:
  83              	.LFB37:
  48:PositionPID.c **** void EnablePID() {
  84              		.loc 1 48 0
  85              		.cfi_startproc
  86              		@ args = 0, pretend = 0, frame = 0
  87              		@ frame_needed = 0, uses_anonymous_args = 0
  88              		@ link register save eliminated.
  49:PositionPID.c ****     enabledPID = 1;
  89              		.loc 1 49 0
  90 0000 0122     		movs	r2, #1
  91 0002 014B     		ldr	r3, .L8
  92 0004 1A72     		strb	r2, [r3, #8]
  50:PositionPID.c **** }
  93              		.loc 1 50 0
  94              		@ sp needed
  95 0006 7047     		bx	lr
  96              	.L9:
  97              		.align	2
  98              	.L8:
  99 0008 00000000 		.word	.LANCHOR0
 100              		.cfi_endproc
 101              	.LFE37:
 102              		.size	EnablePID, .-EnablePID
 103              		.section	.text.PIDIsEnabled,"ax",%progbits
 104              		.align	2
 105              		.global	PIDIsEnabled
 106              		.code	16
 107              		.thumb_func
 108              		.type	PIDIsEnabled, %function
 109              	PIDIsEnabled:
 110              	.LFB38:
  51:PositionPID.c **** uint8_t PIDIsEnabled() {
 111              		.loc 1 51 0
 112              		.cfi_startproc
 113              		@ args = 0, pretend = 0, frame = 0
 114              		@ frame_needed = 0, uses_anonymous_args = 0
 115              		@ link register save eliminated.
  52:PositionPID.c ****     return(enabledPID);
 116              		.loc 1 52 0
 117 0000 014B     		ldr	r3, .L11
 118 0002 187A     		ldrb	r0, [r3, #8]
  53:PositionPID.c **** }
ARM GAS  C:\Users\davis\AppData\Local\Temp\cc4oM3Qv.s 			page 4


 119              		.loc 1 53 0
 120              		@ sp needed
 121 0004 7047     		bx	lr
 122              	.L12:
 123 0006 C046     		.align	2
 124              	.L11:
 125 0008 00000000 		.word	.LANCHOR0
 126              		.cfi_endproc
 127              	.LFE38:
 128              		.size	PIDIsEnabled, .-PIDIsEnabled
 129              		.section	.text.InitializePID,"ax",%progbits
 130              		.align	2
 131              		.global	InitializePID
 132              		.code	16
 133              		.thumb_func
 134              		.type	InitializePID, %function
 135              	InitializePID:
 136              	.LFB39:
  54:PositionPID.c **** void InitializePID() { //TODO: make work with both motors or ask if only swivel needed
 137              		.loc 1 54 0
 138              		.cfi_startproc
 139              		@ args = 0, pretend = 0, frame = 0
 140              		@ frame_needed = 0, uses_anonymous_args = 0
 141 0000 10B5     		push	{r4, lr}
 142              		.cfi_def_cfa_offset 8
 143              		.cfi_offset 4, -8
 144              		.cfi_offset 14, -4
  55:PositionPID.c ****     set_PWM_M2(0, 0, 0);
 145              		.loc 1 55 0
 146 0002 0022     		movs	r2, #0
 147 0004 0021     		movs	r1, #0
 148 0006 0020     		movs	r0, #0
 149 0008 FFF7FEFF 		bl	set_PWM_M2
 150              	.LVL0:
  56:PositionPID.c ****     ClearPIDProgress();
 151              		.loc 1 56 0
 152 000c FFF7FEFF 		bl	ClearPIDProgress
 153              	.LVL1:
  57:PositionPID.c ****     DisablePID();
 154              		.loc 1 57 0
 155 0010 FFF7FEFF 		bl	DisablePID
 156              	.LVL2:
  58:PositionPID.c ****     lastError = 0;
 157              		.loc 1 58 0
 158 0014 0022     		movs	r2, #0
 159 0016 014B     		ldr	r3, .L14
 160 0018 5A60     		str	r2, [r3, #4]
  59:PositionPID.c **** }
 161              		.loc 1 59 0
 162              		@ sp needed
 163 001a 10BD     		pop	{r4, pc}
 164              	.L15:
 165              		.align	2
 166              	.L14:
 167 001c 00000000 		.word	.LANCHOR0
 168              		.cfi_endproc
 169              	.LFE39:
ARM GAS  C:\Users\davis\AppData\Local\Temp\cc4oM3Qv.s 			page 5


 170              		.size	InitializePID, .-InitializePID
 171              		.section	.text.SetkPosition,"ax",%progbits
 172              		.align	2
 173              		.global	SetkPosition
 174              		.code	16
 175              		.thumb_func
 176              		.type	SetkPosition, %function
 177              	SetkPosition:
 178              	.LFB40:
  60:PositionPID.c **** 
  61:PositionPID.c **** void SetkPosition(int32_t kP){
 179              		.loc 1 61 0
 180              		.cfi_startproc
 181              		@ args = 0, pretend = 0, frame = 0
 182              		@ frame_needed = 0, uses_anonymous_args = 0
 183              		@ link register save eliminated.
 184              	.LVL3:
  62:PositionPID.c ****     kPosition = kP;
 185              		.loc 1 62 0
 186 0000 014B     		ldr	r3, .L17
 187 0002 D860     		str	r0, [r3, #12]
  63:PositionPID.c **** }
 188              		.loc 1 63 0
 189              		@ sp needed
 190 0004 7047     		bx	lr
 191              	.L18:
 192 0006 C046     		.align	2
 193              	.L17:
 194 0008 00000000 		.word	.LANCHOR0
 195              		.cfi_endproc
 196              	.LFE40:
 197              		.size	SetkPosition, .-SetkPosition
 198              		.section	.text.SetkIntegral,"ax",%progbits
 199              		.align	2
 200              		.global	SetkIntegral
 201              		.code	16
 202              		.thumb_func
 203              		.type	SetkIntegral, %function
 204              	SetkIntegral:
 205              	.LFB41:
  64:PositionPID.c **** void SetkIntegral(int32_t kI){
 206              		.loc 1 64 0
 207              		.cfi_startproc
 208              		@ args = 0, pretend = 0, frame = 0
 209              		@ frame_needed = 0, uses_anonymous_args = 0
 210              		@ link register save eliminated.
 211              	.LVL4:
  65:PositionPID.c ****     kIntegral = kI;
 212              		.loc 1 65 0
 213 0000 014B     		ldr	r3, .L20
 214 0002 1861     		str	r0, [r3, #16]
  66:PositionPID.c **** }
 215              		.loc 1 66 0
 216              		@ sp needed
 217 0004 7047     		bx	lr
 218              	.L21:
 219 0006 C046     		.align	2
ARM GAS  C:\Users\davis\AppData\Local\Temp\cc4oM3Qv.s 			page 6


 220              	.L20:
 221 0008 00000000 		.word	.LANCHOR0
 222              		.cfi_endproc
 223              	.LFE41:
 224              		.size	SetkIntegral, .-SetkIntegral
 225              		.section	.text.SetkDerivative,"ax",%progbits
 226              		.align	2
 227              		.global	SetkDerivative
 228              		.code	16
 229              		.thumb_func
 230              		.type	SetkDerivative, %function
 231              	SetkDerivative:
 232              	.LFB42:
  67:PositionPID.c **** void SetkDerivative(int32_t kD){
 233              		.loc 1 67 0
 234              		.cfi_startproc
 235              		@ args = 0, pretend = 0, frame = 0
 236              		@ frame_needed = 0, uses_anonymous_args = 0
 237              		@ link register save eliminated.
 238              	.LVL5:
  68:PositionPID.c ****     kDerivative = kD;
 239              		.loc 1 68 0
 240 0000 014B     		ldr	r3, .L23
 241 0002 5861     		str	r0, [r3, #20]
  69:PositionPID.c **** }
 242              		.loc 1 69 0
 243              		@ sp needed
 244 0004 7047     		bx	lr
 245              	.L24:
 246 0006 C046     		.align	2
 247              	.L23:
 248 0008 00000000 		.word	.LANCHOR0
 249              		.cfi_endproc
 250              	.LFE42:
 251              		.size	SetkDerivative, .-SetkDerivative
 252              		.global	__aeabi_idiv
 253              		.section	.text.GetPotVal,"ax",%progbits
 254              		.align	2
 255              		.global	GetPotVal
 256              		.code	16
 257              		.thumb_func
 258              		.type	GetPotVal, %function
 259              	GetPotVal:
 260              	.LFB43:
  70:PositionPID.c **** int32_t GetPotVal() {
 261              		.loc 1 70 0
 262              		.cfi_startproc
 263              		@ args = 0, pretend = 0, frame = 0
 264              		@ frame_needed = 0, uses_anonymous_args = 0
 265 0000 70B5     		push	{r4, r5, r6, lr}
 266              		.cfi_def_cfa_offset 16
 267              		.cfi_offset 4, -16
 268              		.cfi_offset 5, -12
 269              		.cfi_offset 6, -8
 270              		.cfi_offset 14, -4
 271              	.LVL6:
 272              	.LBB2:
ARM GAS  C:\Users\davis\AppData\Local\Temp\cc4oM3Qv.s 			page 7


  71:PositionPID.c ****     int32_t n = 1000;
  72:PositionPID.c ****     int32_t sum = 0;
  73:PositionPID.c ****     for (int i = 0; i < n; i++) {
 273              		.loc 1 73 0
 274 0002 0024     		movs	r4, #0
 275              	.LBE2:
  72:PositionPID.c ****     for (int i = 0; i < n; i++) {
 276              		.loc 1 72 0
 277 0004 0025     		movs	r5, #0
 278              	.LBB3:
 279              		.loc 1 73 0
 280 0006 09E0     		b	.L26
 281              	.LVL7:
 282              	.L27:
  74:PositionPID.c ****         ADC_Pot_StartConvert();
 283              		.loc 1 74 0 discriminator 3
 284 0008 FFF7FEFF 		bl	ADC_Pot_StartConvert
 285              	.LVL8:
  75:PositionPID.c ****         ADC_Pot_IsEndConversion(ADC_Pot_WAIT_FOR_RESULT);
 286              		.loc 1 75 0 discriminator 3
 287 000c 0220     		movs	r0, #2
 288 000e FFF7FEFF 		bl	ADC_Pot_IsEndConversion
 289              	.LVL9:
  76:PositionPID.c ****         sum += ADC_Pot_GetResult16(0);
 290              		.loc 1 76 0 discriminator 3
 291 0012 0020     		movs	r0, #0
 292 0014 FFF7FEFF 		bl	ADC_Pot_GetResult16
 293              	.LVL10:
 294 0018 2D18     		adds	r5, r5, r0
 295              	.LVL11:
  73:PositionPID.c ****         ADC_Pot_StartConvert();
 296              		.loc 1 73 0 discriminator 3
 297 001a 0134     		adds	r4, r4, #1
 298              	.LVL12:
 299              	.L26:
  73:PositionPID.c ****         ADC_Pot_StartConvert();
 300              		.loc 1 73 0 is_stmt 0 discriminator 1
 301 001c 044B     		ldr	r3, .L28
 302 001e 9C42     		cmp	r4, r3
 303 0020 F2DD     		ble	.L27
 304              	.LBE3:
  77:PositionPID.c ****     }    
  78:PositionPID.c ****     
  79:PositionPID.c ****     return sum/n;
 305              		.loc 1 79 0 is_stmt 1
 306 0022 FA21     		movs	r1, #250
 307 0024 8900     		lsls	r1, r1, #2
 308 0026 2800     		movs	r0, r5
 309 0028 FFF7FEFF 		bl	__aeabi_idiv
 310              	.LVL13:
  80:PositionPID.c **** }
 311              		.loc 1 80 0
 312              		@ sp needed
 313              	.LVL14:
 314              	.LVL15:
 315 002c 70BD     		pop	{r4, r5, r6, pc}
 316              	.L29:
ARM GAS  C:\Users\davis\AppData\Local\Temp\cc4oM3Qv.s 			page 8


 317 002e C046     		.align	2
 318              	.L28:
 319 0030 E7030000 		.word	999
 320              		.cfi_endproc
 321              	.LFE43:
 322              		.size	GetPotVal, .-GetPotVal
 323              		.section	.text.SetConversion,"ax",%progbits
 324              		.align	2
 325              		.global	SetConversion
 326              		.code	16
 327              		.thumb_func
 328              		.type	SetConversion, %function
 329              	SetConversion:
 330              	.LFB44:
  81:PositionPID.c **** void SetConversion(double conv) {
 331              		.loc 1 81 0
 332              		.cfi_startproc
 333              		@ args = 0, pretend = 0, frame = 0
 334              		@ frame_needed = 0, uses_anonymous_args = 0
 335              		@ link register save eliminated.
 336              	.LVL16:
  82:PositionPID.c ****     mDegPerTick = conv;
 337              		.loc 1 82 0
 338 0000 014B     		ldr	r3, .L31
 339 0002 1860     		str	r0, [r3]
 340 0004 5960     		str	r1, [r3, #4]
  83:PositionPID.c **** }
 341              		.loc 1 83 0
 342              		@ sp needed
 343 0006 7047     		bx	lr
 344              	.L32:
 345              		.align	2
 346              	.L31:
 347 0008 00000000 		.word	mDegPerTick
 348              		.cfi_endproc
 349              	.LFE44:
 350              		.size	SetConversion, .-SetConversion
 351              		.global	__aeabi_i2d
 352              		.global	__aeabi_ddiv
 353              		.section	.text.UpdateConversion,"ax",%progbits
 354              		.align	2
 355              		.global	UpdateConversion
 356              		.code	16
 357              		.thumb_func
 358              		.type	UpdateConversion, %function
 359              	UpdateConversion:
 360              	.LFB45:
  84:PositionPID.c **** double UpdateConversion() {
 361              		.loc 1 84 0
 362              		.cfi_startproc
 363              		@ args = 0, pretend = 0, frame = 0
 364              		@ frame_needed = 0, uses_anonymous_args = 0
 365 0000 F8B5     		push	{r3, r4, r5, r6, r7, lr}
 366              		.cfi_def_cfa_offset 24
 367              		.cfi_offset 3, -24
 368              		.cfi_offset 4, -20
 369              		.cfi_offset 5, -16
ARM GAS  C:\Users\davis\AppData\Local\Temp\cc4oM3Qv.s 			page 9


 370              		.cfi_offset 6, -12
 371              		.cfi_offset 7, -8
 372              		.cfi_offset 14, -4
  85:PositionPID.c ****     if (mDegMin == mDegMax) return 0;
 373              		.loc 1 85 0
 374 0002 0E4B     		ldr	r3, .L36
 375 0004 9D69     		ldr	r5, [r3, #24]
 376 0006 DC69     		ldr	r4, [r3, #28]
 377 0008 A542     		cmp	r5, r4
 378 000a 14D0     		beq	.L35
  86:PositionPID.c ****     mDegPerTick = (double) (tickMax-tickMin)/(mDegMax-mDegMin);
 379              		.loc 1 86 0
 380 000c 1A00     		movs	r2, r3
 381 000e 1B6A     		ldr	r3, [r3, #32]
 382 0010 506A     		ldr	r0, [r2, #36]
 383 0012 181A     		subs	r0, r3, r0
 384 0014 FFF7FEFF 		bl	__aeabi_i2d
 385              	.LVL17:
 386 0018 0600     		movs	r6, r0
 387 001a 0F00     		movs	r7, r1
 388 001c 601B     		subs	r0, r4, r5
 389 001e FFF7FEFF 		bl	__aeabi_i2d
 390              	.LVL18:
 391 0022 0200     		movs	r2, r0
 392 0024 0B00     		movs	r3, r1
 393 0026 3000     		movs	r0, r6
 394 0028 3900     		movs	r1, r7
 395 002a FFF7FEFF 		bl	__aeabi_ddiv
 396              	.LVL19:
 397 002e 044B     		ldr	r3, .L36+4
 398 0030 1860     		str	r0, [r3]
 399 0032 5960     		str	r1, [r3, #4]
  87:PositionPID.c ****     return mDegPerTick;
 400              		.loc 1 87 0
 401 0034 01E0     		b	.L34
 402              	.L35:
  85:PositionPID.c ****     if (mDegMin == mDegMax) return 0;
 403              		.loc 1 85 0
 404 0036 0020     		movs	r0, #0
 405 0038 0021     		movs	r1, #0
 406              	.L34:
  88:PositionPID.c **** }
 407              		.loc 1 88 0
 408              		@ sp needed
 409 003a F8BD     		pop	{r3, r4, r5, r6, r7, pc}
 410              	.L37:
 411              		.align	2
 412              	.L36:
 413 003c 00000000 		.word	.LANCHOR0
 414 0040 00000000 		.word	mDegPerTick
 415              		.cfi_endproc
 416              	.LFE45:
 417              		.size	UpdateConversion, .-UpdateConversion
 418              		.section	.text.GetkPosition,"ax",%progbits
 419              		.align	2
 420              		.global	GetkPosition
 421              		.code	16
ARM GAS  C:\Users\davis\AppData\Local\Temp\cc4oM3Qv.s 			page 10


 422              		.thumb_func
 423              		.type	GetkPosition, %function
 424              	GetkPosition:
 425              	.LFB46:
  89:PositionPID.c **** int32_t GetkPosition(){
 426              		.loc 1 89 0
 427              		.cfi_startproc
 428              		@ args = 0, pretend = 0, frame = 0
 429              		@ frame_needed = 0, uses_anonymous_args = 0
 430              		@ link register save eliminated.
  90:PositionPID.c ****     return kPosition;
 431              		.loc 1 90 0
 432 0000 014B     		ldr	r3, .L39
 433 0002 D868     		ldr	r0, [r3, #12]
  91:PositionPID.c **** }
 434              		.loc 1 91 0
 435              		@ sp needed
 436 0004 7047     		bx	lr
 437              	.L40:
 438 0006 C046     		.align	2
 439              	.L39:
 440 0008 00000000 		.word	.LANCHOR0
 441              		.cfi_endproc
 442              	.LFE46:
 443              		.size	GetkPosition, .-GetkPosition
 444              		.section	.text.GetkIntegral,"ax",%progbits
 445              		.align	2
 446              		.global	GetkIntegral
 447              		.code	16
 448              		.thumb_func
 449              		.type	GetkIntegral, %function
 450              	GetkIntegral:
 451              	.LFB47:
  92:PositionPID.c **** int32_t GetkIntegral(){
 452              		.loc 1 92 0
 453              		.cfi_startproc
 454              		@ args = 0, pretend = 0, frame = 0
 455              		@ frame_needed = 0, uses_anonymous_args = 0
 456              		@ link register save eliminated.
  93:PositionPID.c ****     return kIntegral;
 457              		.loc 1 93 0
 458 0000 014B     		ldr	r3, .L42
 459 0002 1869     		ldr	r0, [r3, #16]
  94:PositionPID.c **** }
 460              		.loc 1 94 0
 461              		@ sp needed
 462 0004 7047     		bx	lr
 463              	.L43:
 464 0006 C046     		.align	2
 465              	.L42:
 466 0008 00000000 		.word	.LANCHOR0
 467              		.cfi_endproc
 468              	.LFE47:
 469              		.size	GetkIntegral, .-GetkIntegral
 470              		.section	.text.GetkDerivative,"ax",%progbits
 471              		.align	2
 472              		.global	GetkDerivative
ARM GAS  C:\Users\davis\AppData\Local\Temp\cc4oM3Qv.s 			page 11


 473              		.code	16
 474              		.thumb_func
 475              		.type	GetkDerivative, %function
 476              	GetkDerivative:
 477              	.LFB48:
  95:PositionPID.c **** int32_t GetkDerivative(){
 478              		.loc 1 95 0
 479              		.cfi_startproc
 480              		@ args = 0, pretend = 0, frame = 0
 481              		@ frame_needed = 0, uses_anonymous_args = 0
 482              		@ link register save eliminated.
  96:PositionPID.c ****     return kDerivative;
 483              		.loc 1 96 0
 484 0000 014B     		ldr	r3, .L45
 485 0002 5869     		ldr	r0, [r3, #20]
  97:PositionPID.c **** }
 486              		.loc 1 97 0
 487              		@ sp needed
 488 0004 7047     		bx	lr
 489              	.L46:
 490 0006 C046     		.align	2
 491              	.L45:
 492 0008 00000000 		.word	.LANCHOR0
 493              		.cfi_endproc
 494              	.LFE48:
 495              		.size	GetkDerivative, .-GetkDerivative
 496              		.section	.text.GetConversion,"ax",%progbits
 497              		.align	2
 498              		.global	GetConversion
 499              		.code	16
 500              		.thumb_func
 501              		.type	GetConversion, %function
 502              	GetConversion:
 503              	.LFB49:
  98:PositionPID.c **** double GetConversion(){
 504              		.loc 1 98 0
 505              		.cfi_startproc
 506              		@ args = 0, pretend = 0, frame = 0
 507              		@ frame_needed = 0, uses_anonymous_args = 0
 508              		@ link register save eliminated.
  99:PositionPID.c ****     return mDegPerTick;
 509              		.loc 1 99 0
 510 0000 014B     		ldr	r3, .L48
 511 0002 1868     		ldr	r0, [r3]
 512 0004 5968     		ldr	r1, [r3, #4]
 100:PositionPID.c **** }
 513              		.loc 1 100 0
 514              		@ sp needed
 515 0006 7047     		bx	lr
 516              	.L49:
 517              		.align	2
 518              	.L48:
 519 0008 00000000 		.word	mDegPerTick
 520              		.cfi_endproc
 521              	.LFE49:
 522              		.size	GetConversion, .-GetConversion
 523              		.section	.text.setUsingPot,"ax",%progbits
ARM GAS  C:\Users\davis\AppData\Local\Temp\cc4oM3Qv.s 			page 12


 524              		.align	2
 525              		.global	setUsingPot
 526              		.code	16
 527              		.thumb_func
 528              		.type	setUsingPot, %function
 529              	setUsingPot:
 530              	.LFB50:
 101:PositionPID.c **** void setUsingPot(uint8_t pot) {
 531              		.loc 1 101 0
 532              		.cfi_startproc
 533              		@ args = 0, pretend = 0, frame = 0
 534              		@ frame_needed = 0, uses_anonymous_args = 0
 535              		@ link register save eliminated.
 536              	.LVL20:
 102:PositionPID.c ****     usingPot = pot;
 537              		.loc 1 102 0
 538 0000 2823     		movs	r3, #40
 539 0002 014A     		ldr	r2, .L51
 540 0004 D054     		strb	r0, [r2, r3]
 103:PositionPID.c **** }
 541              		.loc 1 103 0
 542              		@ sp needed
 543 0006 7047     		bx	lr
 544              	.L52:
 545              		.align	2
 546              	.L51:
 547 0008 00000000 		.word	.LANCHOR0
 548              		.cfi_endproc
 549              	.LFE50:
 550              		.size	setUsingPot, .-setUsingPot
 551              		.section	.text.SetMaxPIDPWM,"ax",%progbits
 552              		.align	2
 553              		.global	SetMaxPIDPWM
 554              		.code	16
 555              		.thumb_func
 556              		.type	SetMaxPIDPWM, %function
 557              	SetMaxPIDPWM:
 558              	.LFB51:
 104:PositionPID.c **** void SetMaxPIDPWM(uint16_t setValue){
 559              		.loc 1 104 0
 560              		.cfi_startproc
 561              		@ args = 0, pretend = 0, frame = 0
 562              		@ frame_needed = 0, uses_anonymous_args = 0
 563              		@ link register save eliminated.
 564              	.LVL21:
 105:PositionPID.c ****     maxPWM = setValue;
 565              		.loc 1 105 0
 566 0000 014B     		ldr	r3, .L54
 567 0002 1860     		str	r0, [r3]
 106:PositionPID.c **** }
 568              		.loc 1 106 0
 569              		@ sp needed
 570 0004 7047     		bx	lr
 571              	.L55:
 572 0006 C046     		.align	2
 573              	.L54:
 574 0008 00000000 		.word	.LANCHOR1
ARM GAS  C:\Users\davis\AppData\Local\Temp\cc4oM3Qv.s 			page 13


 575              		.cfi_endproc
 576              	.LFE51:
 577              		.size	SetMaxPIDPWM, .-SetMaxPIDPWM
 578              		.section	.text.GetMaxPIDPWM,"ax",%progbits
 579              		.align	2
 580              		.global	GetMaxPIDPWM
 581              		.code	16
 582              		.thumb_func
 583              		.type	GetMaxPIDPWM, %function
 584              	GetMaxPIDPWM:
 585              	.LFB52:
 107:PositionPID.c **** int32_t GetMaxPIDPWM(){
 586              		.loc 1 107 0
 587              		.cfi_startproc
 588              		@ args = 0, pretend = 0, frame = 0
 589              		@ frame_needed = 0, uses_anonymous_args = 0
 590              		@ link register save eliminated.
 108:PositionPID.c ****     return maxPWM;
 591              		.loc 1 108 0
 592 0000 014B     		ldr	r3, .L57
 593 0002 1868     		ldr	r0, [r3]
 109:PositionPID.c **** }
 594              		.loc 1 109 0
 595              		@ sp needed
 596 0004 7047     		bx	lr
 597              	.L58:
 598 0006 C046     		.align	2
 599              	.L57:
 600 0008 00000000 		.word	.LANCHOR1
 601              		.cfi_endproc
 602              	.LFE52:
 603              		.size	GetMaxPIDPWM, .-GetMaxPIDPWM
 604              		.section	.text.setTickMin,"ax",%progbits
 605              		.align	2
 606              		.global	setTickMin
 607              		.code	16
 608              		.thumb_func
 609              		.type	setTickMin, %function
 610              	setTickMin:
 611              	.LFB53:
 110:PositionPID.c **** void setTickMin(int32_t val) { tickMin = val; }
 612              		.loc 1 110 0
 613              		.cfi_startproc
 614              		@ args = 0, pretend = 0, frame = 0
 615              		@ frame_needed = 0, uses_anonymous_args = 0
 616              		@ link register save eliminated.
 617              	.LVL22:
 618              		.loc 1 110 0
 619 0000 014B     		ldr	r3, .L60
 620 0002 5862     		str	r0, [r3, #36]
 621              		@ sp needed
 622 0004 7047     		bx	lr
 623              	.L61:
 624 0006 C046     		.align	2
 625              	.L60:
 626 0008 00000000 		.word	.LANCHOR0
 627              		.cfi_endproc
ARM GAS  C:\Users\davis\AppData\Local\Temp\cc4oM3Qv.s 			page 14


 628              	.LFE53:
 629              		.size	setTickMin, .-setTickMin
 630              		.section	.text.setTickMax,"ax",%progbits
 631              		.align	2
 632              		.global	setTickMax
 633              		.code	16
 634              		.thumb_func
 635              		.type	setTickMax, %function
 636              	setTickMax:
 637              	.LFB54:
 111:PositionPID.c **** void setTickMax(int32_t val) { tickMax = val; }
 638              		.loc 1 111 0
 639              		.cfi_startproc
 640              		@ args = 0, pretend = 0, frame = 0
 641              		@ frame_needed = 0, uses_anonymous_args = 0
 642              		@ link register save eliminated.
 643              	.LVL23:
 644              		.loc 1 111 0
 645 0000 014B     		ldr	r3, .L63
 646 0002 1862     		str	r0, [r3, #32]
 647              		@ sp needed
 648 0004 7047     		bx	lr
 649              	.L64:
 650 0006 C046     		.align	2
 651              	.L63:
 652 0008 00000000 		.word	.LANCHOR0
 653              		.cfi_endproc
 654              	.LFE54:
 655              		.size	setTickMax, .-setTickMax
 656              		.section	.text.setmDegMin,"ax",%progbits
 657              		.align	2
 658              		.global	setmDegMin
 659              		.code	16
 660              		.thumb_func
 661              		.type	setmDegMin, %function
 662              	setmDegMin:
 663              	.LFB55:
 112:PositionPID.c **** void setmDegMin(int32_t val) { mDegMin = val; }
 664              		.loc 1 112 0
 665              		.cfi_startproc
 666              		@ args = 0, pretend = 0, frame = 0
 667              		@ frame_needed = 0, uses_anonymous_args = 0
 668              		@ link register save eliminated.
 669              	.LVL24:
 670              		.loc 1 112 0
 671 0000 014B     		ldr	r3, .L66
 672 0002 9861     		str	r0, [r3, #24]
 673              		@ sp needed
 674 0004 7047     		bx	lr
 675              	.L67:
 676 0006 C046     		.align	2
 677              	.L66:
 678 0008 00000000 		.word	.LANCHOR0
 679              		.cfi_endproc
 680              	.LFE55:
 681              		.size	setmDegMin, .-setmDegMin
 682              		.section	.text.setmDegMax,"ax",%progbits
ARM GAS  C:\Users\davis\AppData\Local\Temp\cc4oM3Qv.s 			page 15


 683              		.align	2
 684              		.global	setmDegMax
 685              		.code	16
 686              		.thumb_func
 687              		.type	setmDegMax, %function
 688              	setmDegMax:
 689              	.LFB56:
 113:PositionPID.c **** void setmDegMax(int32_t val) { mDegMax = val; }
 690              		.loc 1 113 0
 691              		.cfi_startproc
 692              		@ args = 0, pretend = 0, frame = 0
 693              		@ frame_needed = 0, uses_anonymous_args = 0
 694              		@ link register save eliminated.
 695              	.LVL25:
 696              		.loc 1 113 0
 697 0000 014B     		ldr	r3, .L69
 698 0002 D861     		str	r0, [r3, #28]
 699              		@ sp needed
 700 0004 7047     		bx	lr
 701              	.L70:
 702 0006 C046     		.align	2
 703              	.L69:
 704 0008 00000000 		.word	.LANCHOR0
 705              		.cfi_endproc
 706              	.LFE56:
 707              		.size	setmDegMax, .-setmDegMax
 708              		.global	__aeabi_dcmpeq
 709              		.global	__aeabi_dmul
 710              		.global	__aeabi_dadd
 711              		.global	__aeabi_d2iz
 712              		.section	.text.GetPositionmDeg,"ax",%progbits
 713              		.align	2
 714              		.global	GetPositionmDeg
 715              		.code	16
 716              		.thumb_func
 717              		.type	GetPositionmDeg, %function
 718              	GetPositionmDeg:
 719              	.LFB57:
 114:PositionPID.c **** 
 115:PositionPID.c **** int32_t GetPositionmDeg() {
 720              		.loc 1 115 0
 721              		.cfi_startproc
 722              		@ args = 0, pretend = 0, frame = 0
 723              		@ frame_needed = 0, uses_anonymous_args = 0
 724 0000 F8B5     		push	{r3, r4, r5, r6, r7, lr}
 725              		.cfi_def_cfa_offset 24
 726              		.cfi_offset 3, -24
 727              		.cfi_offset 4, -20
 728              		.cfi_offset 5, -16
 729              		.cfi_offset 6, -12
 730              		.cfi_offset 7, -8
 731              		.cfi_offset 14, -4
 116:PositionPID.c ****     if (mDegPerTick == 0.0)
 732              		.loc 1 116 0
 733 0002 194B     		ldr	r3, .L75
 734 0004 1C68     		ldr	r4, [r3]
 735 0006 5D68     		ldr	r5, [r3, #4]
ARM GAS  C:\Users\davis\AppData\Local\Temp\cc4oM3Qv.s 			page 16


 736 0008 0022     		movs	r2, #0
 737 000a 0023     		movs	r3, #0
 738 000c 2000     		movs	r0, r4
 739 000e 2900     		movs	r1, r5
 740 0010 FFF7FEFF 		bl	__aeabi_dcmpeq
 741              	.LVL26:
 742 0014 0028     		cmp	r0, #0
 743 0016 25D1     		bne	.L74
 117:PositionPID.c ****         return(0);
 118:PositionPID.c ****     
 119:PositionPID.c ****     if (usingPot) 
 744              		.loc 1 119 0
 745 0018 2823     		movs	r3, #40
 746 001a 144A     		ldr	r2, .L75+4
 747 001c D35C     		ldrb	r3, [r2, r3]
 748 001e 002B     		cmp	r3, #0
 749 0020 17D0     		beq	.L73
 120:PositionPID.c ****         return (GetPotVal()-tickMin) * mDegPerTick + mDegMin;
 750              		.loc 1 120 0
 751 0022 FFF7FEFF 		bl	GetPotVal
 752              	.LVL27:
 753 0026 114C     		ldr	r4, .L75+4
 754 0028 636A     		ldr	r3, [r4, #36]
 755 002a C01A     		subs	r0, r0, r3
 756 002c FFF7FEFF 		bl	__aeabi_i2d
 757              	.LVL28:
 758 0030 0D4B     		ldr	r3, .L75
 759 0032 1A68     		ldr	r2, [r3]
 760 0034 5B68     		ldr	r3, [r3, #4]
 761 0036 FFF7FEFF 		bl	__aeabi_dmul
 762              	.LVL29:
 763 003a 0600     		movs	r6, r0
 764 003c 0F00     		movs	r7, r1
 765 003e A069     		ldr	r0, [r4, #24]
 766 0040 FFF7FEFF 		bl	__aeabi_i2d
 767              	.LVL30:
 768 0044 3200     		movs	r2, r6
 769 0046 3B00     		movs	r3, r7
 770 0048 FFF7FEFF 		bl	__aeabi_dadd
 771              	.LVL31:
 772 004c FFF7FEFF 		bl	__aeabi_d2iz
 773              	.LVL32:
 774 0050 09E0     		b	.L72
 775              	.L73:
 121:PositionPID.c **** 
 122:PositionPID.c ****     // return QuadDec_GetCounter() * mDegPerTick;
 123:PositionPID.c ****     return 0 * mDegPerTick;
 776              		.loc 1 123 0
 777 0052 0022     		movs	r2, #0
 778 0054 0023     		movs	r3, #0
 779 0056 2000     		movs	r0, r4
 780 0058 2900     		movs	r1, r5
 781 005a FFF7FEFF 		bl	__aeabi_dmul
 782              	.LVL33:
 783 005e FFF7FEFF 		bl	__aeabi_d2iz
 784              	.LVL34:
 785 0062 00E0     		b	.L72
ARM GAS  C:\Users\davis\AppData\Local\Temp\cc4oM3Qv.s 			page 17


 786              	.L74:
 117:PositionPID.c ****     
 787              		.loc 1 117 0
 788 0064 0020     		movs	r0, #0
 789              	.L72:
 124:PositionPID.c **** }
 790              		.loc 1 124 0
 791              		@ sp needed
 792 0066 F8BD     		pop	{r3, r4, r5, r6, r7, pc}
 793              	.L76:
 794              		.align	2
 795              	.L75:
 796 0068 00000000 		.word	mDegPerTick
 797 006c 00000000 		.word	.LANCHOR0
 798              		.cfi_endproc
 799              	.LFE57:
 800              		.size	GetPositionmDeg, .-GetPositionmDeg
 801              		.section	.text.Position_PID,"ax",%progbits
 802              		.align	2
 803              		.global	Position_PID
 804              		.code	16
 805              		.thumb_func
 806              		.type	Position_PID, %function
 807              	Position_PID:
 808              	.LFB59:
 125:PositionPID.c **** void SetPosition(int32_t mDegs) {
 126:PositionPID.c ****         //TODO: Make Potentiometer Compatible
 127:PositionPID.c ****         PWM = Position_PID(mDegs);
 128:PositionPID.c ****         
 129:PositionPID.c ****         //Max Power clamp
 130:PositionPID.c ****         if(PWM > maxPWM){
 131:PositionPID.c ****             set_PWM_M2(maxPWM, ignoreLimSw_M2, Status_Reg_Switches_Read());   
 132:PositionPID.c ****         } else if(PWM < -maxPWM) {
 133:PositionPID.c ****             set_PWM_M2(-maxPWM, ignoreLimSw_M2, Status_Reg_Switches_Read());
 134:PositionPID.c ****         } else {
 135:PositionPID.c ****             set_PWM_M2(PWM, ignoreLimSw_M2, Status_Reg_Switches_Read());   
 136:PositionPID.c ****         }
 137:PositionPID.c **** }
 138:PositionPID.c **** 
 139:PositionPID.c **** int32_t Position_PID(int32 targetmDeg){
 809              		.loc 1 139 0
 810              		.cfi_startproc
 811              		@ args = 0, pretend = 0, frame = 0
 812              		@ frame_needed = 0, uses_anonymous_args = 0
 813              	.LVL35:
 814 0000 F8B5     		push	{r3, r4, r5, r6, r7, lr}
 815              		.cfi_def_cfa_offset 24
 816              		.cfi_offset 3, -24
 817              		.cfi_offset 4, -20
 818              		.cfi_offset 5, -16
 819              		.cfi_offset 6, -12
 820              		.cfi_offset 7, -8
 821              		.cfi_offset 14, -4
 822 0002 0500     		movs	r5, r0
 140:PositionPID.c ****     if(!PIDIsEnabled()){
 823              		.loc 1 140 0
 824 0004 FFF7FEFF 		bl	PIDIsEnabled
ARM GAS  C:\Users\davis\AppData\Local\Temp\cc4oM3Qv.s 			page 18


 825              	.LVL36:
 826 0008 0028     		cmp	r0, #0
 827 000a 2FD0     		beq	.L81
 141:PositionPID.c ****         return(0);
 142:PositionPID.c ****     }
 143:PositionPID.c ****     
 144:PositionPID.c ****     int32 current = GetPositionmDeg();
 828              		.loc 1 144 0
 829 000c FFF7FEFF 		bl	GetPositionmDeg
 830              	.LVL37:
 145:PositionPID.c ****     int32 error = targetmDeg - current;
 831              		.loc 1 145 0
 832 0010 2C1A     		subs	r4, r5, r0
 833              	.LVL38:
 146:PositionPID.c ****     
 147:PositionPID.c ****     //if within tolerance exit
 148:PositionPID.c ****     if(error <= 50 && error >= -50) {
 834              		.loc 1 148 0
 835 0012 2300     		movs	r3, r4
 836 0014 3233     		adds	r3, r3, #50
 837 0016 642B     		cmp	r3, #100
 838 0018 2AD9     		bls	.L82
 149:PositionPID.c ****       return(0);
 150:PositionPID.c ****     }
 151:PositionPID.c ****     
 152:PositionPID.c ****     integral = integral + error;
 839              		.loc 1 152 0
 840 001a 164B     		ldr	r3, .L83
 841 001c 1A68     		ldr	r2, [r3]
 842 001e A218     		adds	r2, r4, r2
 843 0020 1A60     		str	r2, [r3]
 153:PositionPID.c ****     
 154:PositionPID.c ****     //integral clamp
 155:PositionPID.c ****     if (integral > integralClamp) {
 844              		.loc 1 155 0
 845 0022 154B     		ldr	r3, .L83+4
 846 0024 5B68     		ldr	r3, [r3, #4]
 847 0026 9A42     		cmp	r2, r3
 848 0028 01DD     		ble	.L79
 156:PositionPID.c ****         integral = integralClamp;   
 849              		.loc 1 156 0
 850 002a 124A     		ldr	r2, .L83
 851 002c 1360     		str	r3, [r2]
 852              	.L79:
 157:PositionPID.c ****     }
 158:PositionPID.c ****     if (integral < -integralClamp) {
 853              		.loc 1 158 0
 854 002e 5B42     		rsbs	r3, r3, #0
 855 0030 104A     		ldr	r2, .L83
 856 0032 1268     		ldr	r2, [r2]
 857 0034 9342     		cmp	r3, r2
 858 0036 01DD     		ble	.L80
 159:PositionPID.c ****         integral = -integralClamp;
 859              		.loc 1 159 0
 860 0038 0E4A     		ldr	r2, .L83
 861 003a 1360     		str	r3, [r2]
 862              	.L80:
ARM GAS  C:\Users\davis\AppData\Local\Temp\cc4oM3Qv.s 			page 19


 160:PositionPID.c ****     }
 161:PositionPID.c ****     
 162:PositionPID.c ****     int derivative = error - lastError;
 863              		.loc 1 162 0
 864 003c 0D4D     		ldr	r5, .L83
 865              	.LVL39:
 866 003e 6B68     		ldr	r3, [r5, #4]
 867 0040 E71A     		subs	r7, r4, r3
 868              	.LVL40:
 163:PositionPID.c ****     int PWMOut = error*kPosition/10 + integral*kIntegral/10 + derivative*kDerivative/10;
 869              		.loc 1 163 0
 870 0042 E868     		ldr	r0, [r5, #12]
 871              	.LVL41:
 872 0044 6043     		muls	r0, r4
 873 0046 0A21     		movs	r1, #10
 874 0048 FFF7FEFF 		bl	__aeabi_idiv
 875              	.LVL42:
 876 004c 0600     		movs	r6, r0
 877 004e 2869     		ldr	r0, [r5, #16]
 878 0050 2B68     		ldr	r3, [r5]
 879 0052 5843     		muls	r0, r3
 880 0054 0A21     		movs	r1, #10
 881 0056 FFF7FEFF 		bl	__aeabi_idiv
 882              	.LVL43:
 883 005a 3618     		adds	r6, r6, r0
 884 005c 6869     		ldr	r0, [r5, #20]
 885 005e 7843     		muls	r0, r7
 886 0060 0A21     		movs	r1, #10
 887 0062 FFF7FEFF 		bl	__aeabi_idiv
 888              	.LVL44:
 164:PositionPID.c ****     lastError = error;
 889              		.loc 1 164 0
 890 0066 6C60     		str	r4, [r5, #4]
 165:PositionPID.c ****     
 166:PositionPID.c ****     #ifdef PRINT_PID_DEBUG
 167:PositionPID.c ****         sprintf(txData,"c:%d, P:%d, I%d, D:%d, Out:%d", current, error, integral, derivative, PWMOu
 168:PositionPID.c ****         UART_UartPutString(txData);   
 169:PositionPID.c ****     #endif
 170:PositionPID.c ****  
 171:PositionPID.c ****     return (PWMOut);
 891              		.loc 1 171 0
 892 0068 3018     		adds	r0, r6, r0
 893              	.LVL45:
 894 006a 02E0     		b	.L78
 895              	.LVL46:
 896              	.L81:
 141:PositionPID.c ****     }
 897              		.loc 1 141 0
 898 006c 0020     		movs	r0, #0
 899 006e 00E0     		b	.L78
 900              	.LVL47:
 901              	.L82:
 149:PositionPID.c ****     }
 902              		.loc 1 149 0
 903 0070 0020     		movs	r0, #0
 904              	.LVL48:
 905              	.L78:
ARM GAS  C:\Users\davis\AppData\Local\Temp\cc4oM3Qv.s 			page 20


 172:PositionPID.c **** }
 906              		.loc 1 172 0
 907              		@ sp needed
 908 0072 F8BD     		pop	{r3, r4, r5, r6, r7, pc}
 909              	.L84:
 910              		.align	2
 911              	.L83:
 912 0074 00000000 		.word	.LANCHOR0
 913 0078 00000000 		.word	.LANCHOR1
 914              		.cfi_endproc
 915              	.LFE59:
 916              		.size	Position_PID, .-Position_PID
 917              		.section	.text.SetPosition,"ax",%progbits
 918              		.align	2
 919              		.global	SetPosition
 920              		.code	16
 921              		.thumb_func
 922              		.type	SetPosition, %function
 923              	SetPosition:
 924              	.LFB58:
 125:PositionPID.c ****         //TODO: Make Potentiometer Compatible
 925              		.loc 1 125 0
 926              		.cfi_startproc
 927              		@ args = 0, pretend = 0, frame = 0
 928              		@ frame_needed = 0, uses_anonymous_args = 0
 929              	.LVL49:
 930 0000 70B5     		push	{r4, r5, r6, lr}
 931              		.cfi_def_cfa_offset 16
 932              		.cfi_offset 4, -16
 933              		.cfi_offset 5, -12
 934              		.cfi_offset 6, -8
 935              		.cfi_offset 14, -4
 127:PositionPID.c ****         
 936              		.loc 1 127 0
 937 0002 FFF7FEFF 		bl	Position_PID
 938              	.LVL50:
 939 0006 0400     		movs	r4, r0
 940 0008 134B     		ldr	r3, .L89
 941 000a D862     		str	r0, [r3, #44]
 130:PositionPID.c ****             set_PWM_M2(maxPWM, ignoreLimSw_M2, Status_Reg_Switches_Read());   
 942              		.loc 1 130 0
 943 000c 134B     		ldr	r3, .L89+4
 944 000e 1D68     		ldr	r5, [r3]
 945 0010 A842     		cmp	r0, r5
 946 0012 09DD     		ble	.L86
 131:PositionPID.c ****         } else if(PWM < -maxPWM) {
 947              		.loc 1 131 0
 948 0014 124B     		ldr	r3, .L89+8
 949 0016 1C78     		ldrb	r4, [r3]
 950 0018 FFF7FEFF 		bl	Status_Reg_Switches_Read
 951              	.LVL51:
 952 001c 0200     		movs	r2, r0
 953 001e 28B2     		sxth	r0, r5
 954 0020 2100     		movs	r1, r4
 955 0022 FFF7FEFF 		bl	set_PWM_M2
 956              	.LVL52:
 957 0026 16E0     		b	.L85
ARM GAS  C:\Users\davis\AppData\Local\Temp\cc4oM3Qv.s 			page 21


 958              	.L86:
 132:PositionPID.c ****             set_PWM_M2(-maxPWM, ignoreLimSw_M2, Status_Reg_Switches_Read());
 959              		.loc 1 132 0
 960 0028 6B42     		rsbs	r3, r5, #0
 961 002a 9842     		cmp	r0, r3
 962 002c 0ADA     		bge	.L88
 133:PositionPID.c ****         } else {
 963              		.loc 1 133 0
 964 002e 0C4B     		ldr	r3, .L89+8
 965 0030 1C78     		ldrb	r4, [r3]
 966 0032 FFF7FEFF 		bl	Status_Reg_Switches_Read
 967              	.LVL53:
 968 0036 0200     		movs	r2, r0
 969 0038 6D42     		rsbs	r5, r5, #0
 970 003a 28B2     		sxth	r0, r5
 971 003c 2100     		movs	r1, r4
 972 003e FFF7FEFF 		bl	set_PWM_M2
 973              	.LVL54:
 974 0042 08E0     		b	.L85
 975              	.L88:
 135:PositionPID.c ****         }
 976              		.loc 1 135 0
 977 0044 064B     		ldr	r3, .L89+8
 978 0046 1D78     		ldrb	r5, [r3]
 979 0048 FFF7FEFF 		bl	Status_Reg_Switches_Read
 980              	.LVL55:
 981 004c 0200     		movs	r2, r0
 982 004e 20B2     		sxth	r0, r4
 983 0050 2900     		movs	r1, r5
 984 0052 FFF7FEFF 		bl	set_PWM_M2
 985              	.LVL56:
 986              	.L85:
 137:PositionPID.c **** 
 987              		.loc 1 137 0
 988              		@ sp needed
 989 0056 70BD     		pop	{r4, r5, r6, pc}
 990              	.L90:
 991              		.align	2
 992              	.L89:
 993 0058 00000000 		.word	.LANCHOR0
 994 005c 00000000 		.word	.LANCHOR1
 995 0060 00000000 		.word	ignoreLimSw_M2
 996              		.cfi_endproc
 997              	.LFE58:
 998              		.size	SetPosition, .-SetPosition
 999              		.global	enabledPID
 1000              		.global	usingPot
 1001              		.global	maxPWM
 1002              		.global	integralClamp
 1003              		.global	lastError
 1004              		.global	integral
 1005              		.comm	mDegPerTick,8,8
 1006              		.global	mDegMin
 1007              		.global	mDegMax
 1008              		.global	tickMin
 1009              		.global	tickMax
 1010              		.global	kDerivative
ARM GAS  C:\Users\davis\AppData\Local\Temp\cc4oM3Qv.s 			page 22


 1011              		.global	kIntegral
 1012              		.global	kPosition
 1013              		.global	PWM
 1014              		.data
 1015              		.align	2
 1016              		.set	.LANCHOR1,. + 0
 1017              		.type	maxPWM, %object
 1018              		.size	maxPWM, 4
 1019              	maxPWM:
 1020 0000 FF7F0000 		.word	32767
 1021              		.type	integralClamp, %object
 1022              		.size	integralClamp, 4
 1023              	integralClamp:
 1024 0004 F4010000 		.word	500
 1025              		.bss
 1026              		.align	2
 1027              		.set	.LANCHOR0,. + 0
 1028              		.type	integral, %object
 1029              		.size	integral, 4
 1030              	integral:
 1031 0000 00000000 		.space	4
 1032              		.type	lastError, %object
 1033              		.size	lastError, 4
 1034              	lastError:
 1035 0004 00000000 		.space	4
 1036              		.type	enabledPID, %object
 1037              		.size	enabledPID, 1
 1038              	enabledPID:
 1039 0008 00       		.space	1
 1040 0009 000000   		.space	3
 1041              		.type	kPosition, %object
 1042              		.size	kPosition, 4
 1043              	kPosition:
 1044 000c 00000000 		.space	4
 1045              		.type	kIntegral, %object
 1046              		.size	kIntegral, 4
 1047              	kIntegral:
 1048 0010 00000000 		.space	4
 1049              		.type	kDerivative, %object
 1050              		.size	kDerivative, 4
 1051              	kDerivative:
 1052 0014 00000000 		.space	4
 1053              		.type	mDegMin, %object
 1054              		.size	mDegMin, 4
 1055              	mDegMin:
 1056 0018 00000000 		.space	4
 1057              		.type	mDegMax, %object
 1058              		.size	mDegMax, 4
 1059              	mDegMax:
 1060 001c 00000000 		.space	4
 1061              		.type	tickMax, %object
 1062              		.size	tickMax, 4
 1063              	tickMax:
 1064 0020 00000000 		.space	4
 1065              		.type	tickMin, %object
 1066              		.size	tickMin, 4
 1067              	tickMin:
ARM GAS  C:\Users\davis\AppData\Local\Temp\cc4oM3Qv.s 			page 23


 1068 0024 00000000 		.space	4
 1069              		.type	usingPot, %object
 1070              		.size	usingPot, 1
 1071              	usingPot:
 1072 0028 00       		.space	1
 1073 0029 000000   		.space	3
 1074              		.type	PWM, %object
 1075              		.size	PWM, 4
 1076              	PWM:
 1077 002c 00000000 		.space	4
 1078              		.text
 1079              	.Letext0:
 1080              		.file 2 "c:\\program files (x86)\\cypress\\psoc creator\\4.4\\psoc creator\\import\\gnu\\arm\\5.4.
 1081              		.file 3 "c:\\program files (x86)\\cypress\\psoc creator\\4.4\\psoc creator\\import\\gnu\\arm\\5.4.
 1082              		.file 4 "Generated_Source\\PSoC4/cytypes.h"
 1083              		.file 5 "MotorDrive.h"
 1084              		.file 6 "Generated_Source\\PSoC4/ADC_Pot.h"
 1085              		.file 7 "Generated_Source\\PSoC4/Status_Reg_Switches.h"